(dp0
(I3031
I3059
tp1
(I1049
I243
tp2
s(I3064
I3068
tp3
(I1153
I514
tp4
s(I3049
I3010
tp5
(I3203
I806
tp6
s(I3066
I3040
tp7
(I4540
I1298
tp8
s(I3042
I3029
tp9
(I1480
I420
tp10
s(I3005
I3040
tp11
(I1164
I430
tp12
s(I3078
I3038
tp13
(I2905
I791
tp14
s(I3037
I3031
tp15
(I2377
I617
tp16
s(I3030
I3048
tp17
(I1744
I405
tp18
s(I3016
I3036
tp19
(I2328
I415
tp20
s(I3027
I3063
tp21
(I776
I261
tp22
s(I3024
I3058
tp23
(I3594
I779
tp24
s(I3059
I3038
tp25
(I1473
I443
tp26
s(I3074
I3058
tp27
(I3591
I928
tp28
s(I3005
I3023
tp29
(I2343
I695
tp30
s(I3028
I3008
tp31
(I3163
I791
tp32
s(I3022
I3035
tp33
(I3401
I949
tp34
s(I3008
I3078
tp35
(I3301
I934
tp36
s(I3008
I3019
tp37
(I1312
I411
tp38
s(I3036
I3054
tp39
(I924
I215
tp40
s(I3057
I3066
tp41
(I5331
I1463
tp42
s(I3035
I3049
tp43
(I1227
I450
tp44
s(I3068
I3036
tp45
(I3214
I672
tp46
s(I3021
I3010
tp47
(I2378
I643
tp48
s(I3023
I3042
tp49
(I278
I66
tp50
s(I3045
I3081
tp51
(I992
I224
tp52
s(I3038
I3075
tp53
(I1109
I353
tp54
s(I3082
I3056
tp55
(I3904
I1066
tp56
s(I3019
I3082
tp57
(I3196
I881
tp58
s(I3052
I3032
tp59
(I992
I350
tp60
s(I3045
I3033
tp61
(I1956
I499
tp62
s(I3049
I3019
tp63
(I2720
I713
tp64
s(I3066
I3051
tp65
(I2795
I740
tp66
s(I3042
I3052
tp67
(I3204
I946
tp68
s(I3005
I3065
tp69
(I3321
I955
tp70
s(I3078
I3025
tp71
(I5122
I1320
tp72
s(I3081
I3033
tp73
(I1820
I445
tp74
s(I3027
I3068
tp75
(I1302
I477
tp76
s(I3062
I3032
tp77
(I2156
I657
tp78
s(I3048
I3052
tp79
(I3709
I1094
tp80
s(I3024
I3049
tp81
(I1036
I244
tp82
s(I3054
I3032
tp83
(I2976
I855
tp84
s(I3077
I3064
tp85
(I1514
I480
tp86
s(I3074
I3021
tp87
(I3197
I915
tp88
s(I3076
I3065
tp89
(I3030
I877
tp90
s(I3014
I3064
tp91
(I2966
I926
tp92
s(I3011
I3047
tp93
(I220
I88
tp94
s(I3028
I3023
tp95
(I1211
I308
tp96
s(I3036
I3045
tp97
(I3387
I733
tp98
s(I3021
I3067
tp99
(I1874
I522
tp100
s(I3023
I3051
tp101
(I1721
I467
tp102
s(I3018
I3054
tp103
(I2868
I904
tp104
s(I3082
I3067
tp105
(I2051
I551
tp106
s(I3052
I3031
tp107
(I1333
I405
tp108
s(I3045
I3010
tp109
(I1192
I281
tp110
s(I3066
I3058
tp111
(I3773
I823
tp112
s(I3042
I3047
tp113
(I3685
I946
tp114
s(I3005
I3058
tp115
(I3214
I870
tp116
s(I3078
I3016
tp117
(I1612
I472
tp118
s(I3081
I3010
tp119
(I1097
I218
tp120
s(I3055
I3024
tp121
(I2128
I769
tp122
s(I3030
I3066
tp123
(I1572
I436
tp124
s(I3016
I3018
tp125
(I2639
I744
tp126
s(I3029
I3075
tp127
(I1580
I449
tp128
s(I3062
I3027
tp129
(I490
I168
tp130
s(I3029
I3049
tp131
(I1359
I405
tp132
s(I3048
I3027
tp133
(I1585
I449
tp134
s(I3024
I3040
tp135
(I2187
I548
tp136
s(I3026
I3068
tp137
(I1691
I490
tp138
s(I3040
I3011
tp139
(I2093
I492
tp140
s(I3014
I3059
tp141
(I3076
I831
tp142
s(I3020
I3060
tp143
(I1329
I408
tp144
s(I3011
I3052
tp145
(I1653
I503
tp146
s(I3028
I3030
tp147
(I978
I286
tp148
s(I3008
I3033
tp149
(I1032
I363
tp150
s(I3022
I3076
tp151
(I2423
I645
tp152
s(I3035
I3047
tp153
(I1931
I434
tp154
s(I3052
I3007
tp155
(I1579
I522
tp156
s(I3060
I3045
tp157
(I962
I260
tp158
s(I3023
I3056
tp159
(I3364
I870
tp160
s(I3018
I3049
tp161
(I1966
I776
tp162
s(I3082
I3042
tp163
(I567
I161
tp164
s(I3036
I3077
tp165
(I2244
I499
tp166
s(I3032
I3048
tp167
(I2653
I724
tp168
s(I3045
I3019
tp169
(I1667
I476
tp170
s(I3047
I3035
tp171
(I1243
I341
tp172
s(I3066
I3069
tp173
(I1990
I542
tp174
s(I3058
I3005
tp175
(I3055
I828
tp176
s(I3069
I3010
tp177
(I2174
I529
tp178
s(I3030
I3069
tp179
(I683
I205
tp180
s(I3076
I3058
tp181
(I2685
I641
tp182
s(I3029
I3058
tp183
(I2890
I627
tp184
s(I3048
I3034
tp185
(I3779
I1047
tp186
s(I3022
I3005
tp187
(I3047
I865
tp188
s(I3006
I3078
tp189
(I3560
I1011
tp190
s(I3026
I3063
tp191
(I2414
I617
tp192
s(I3040
I3034
tp193
(I2034
I532
tp194
s(I3068
I3005
tp195
(I1133
I412
tp196
s(I3076
I3055
tp197
(I605
I224
tp198
s(I3042
I3010
tp199
(I2498
I625
tp200
s(I3065
I3014
tp201
(I854
I205
tp202
s(I3011
I3029
tp203
(I2889
I824
tp204
s(I3028
I3037
tp205
(I3590
I757
tp206
s(I3008
I3024
tp207
(I1994
I701
tp208
s(I3036
I3067
tp209
(I2513
I604
tp210
s(I3038
I3059
tp211
(I1578
I426
tp212
s(I3057
I3053
tp213
(I1304
I413
tp214
s(I3035
I3068
tp215
(I1614
I577
tp216
s(I3060
I3052
tp217
(I2790
I847
tp218
s(I3059
I3078
tp219
(I4017
I1157
tp220
s(I3023
I3065
tp221
(I1543
I436
tp222
s(I3020
I3052
tp223
(I3109
I944
tp224
s(I3032
I3055
tp225
(I976
I344
tp226
s(I3049
I3006
tp227
(I2069
I526
tp228
s(I3042
I3065
tp229
(I1821
I508
tp230
s(I3056
I3032
tp231
(I2034
I549
tp232
s(I3081
I3020
tp233
(I2183
I622
tp234
s(I3069
I3035
tp235
(I1803
I484
tp236
s(I3016
I3064
tp237
(I2171
I630
tp238
s(I3029
I3067
tp239
(I968
I324
tp240
s(I3024
I3038
tp241
(I2125
I554
tp242
s(I3006
I3081
tp243
(I2346
I559
tp244
s(I3040
I3025
tp245
(I3247
I807
tp246
s(I3051
I3066
tp247
(I2980
I840
tp248
s(I3074
I3030
tp249
(I2335
I678
tp250
s(I3076
I3030
tp251
(I1720
I502
tp252
s(I3065
I3023
tp253
(I1415
I416
tp254
s(I3007
I3028
tp255
(I1234
I503
tp256
s(I3011
I3034
tp257
(I662
I189
tp258
s(I3008
I3031
tp259
(I1267
I358
tp260
s(I3036
I3058
tp261
(I474
I104
tp262
s(I3038
I3066
tp263
(I2294
I607
tp264
s(I3033
I3025
tp265
(I1851
I472
tp266
s(I3075
I3063
tp267
(I1118
I364
tp268
s(I3060
I3051
tp269
(I1751
I498
tp270
s(I3021
I3046
tp271
(I1528
I482
tp272
s(I3023
I3014
tp273
(I1309
I382
tp274
s(I3057
I3075
tp275
(I2083
I569
tp276
s(I3020
I3051
tp277
(I2360
I662
tp278
s(I3032
I3062
tp279
(I1941
I597
tp280
s(I3034
I3046
tp281
(I2212
I678
tp282
s(I3042
I3056
tp283
(I3642
I942
tp284
s(I3078
I3005
tp285
(I3546
I970
tp286
s(I3069
I3028
tp287
(I1151
I445
tp288
s(I3069
I3068
tp289
(I817
I425
tp290
s(I3027
I3074
tp291
(I1935
I535
tp292
s(I3048
I3016
tp293
(I1631
I404
tp294
s(I3024
I3029
tp295
(I1612
I410
tp296
s(I3026
I3049
tp297
(I1072
I230
tp298
s(I3019
I3032
tp299
(I1682
I576
tp300
s(I3077
I3036
tp301
(I2172
I517
tp302
s(I3040
I3048
tp303
(I3968
I1074
tp304
s(I3079
I3048
tp305
(I1622
I268
tp306
s(I3051
I3059
tp307
(I1177
I285
tp308
s(I3074
I3025
tp309
(I1556
I377
tp310
s(I3076
I3037
tp311
(I2610
I622
tp312
s(I3065
I3024
tp313
(I1815
I675
tp314
s(I3007
I3037
tp315
(I3638
I944
tp316
s(I3046
I3005
tp317
(I1523
I400
tp318
s(I3006
I3028
tp319
(I1848
I602
tp320
s(I3038
I3069
tp321
(I654
I212
tp322
s(I3033
I3034
tp323
(I915
I279
tp324
s(I3018
I3047
tp325
(I899
I225
tp326
s(I3035
I3018
tp327
(I1061
I291
tp328
s(I3060
I3068
tp329
(I2775
I897
tp330
s(I3069
I3074
tp331
(I1830
I489
tp332
s(I3063
I3055
tp333
(I888
I404
tp334
s(I3057
I3076
tp335
(I2242
I643
tp336
s(I3045
I3006
tp337
(I2540
I740
tp338
s(I3032
I3069
tp339
(I1155
I357
tp340
s(I3047
I3014
tp341
(I4117
I1143
tp342
s(I3056
I3030
tp343
(I2993
I854
tp344
s(I3048
I3023
tp345
(I1315
I335
tp346
s(I3068
I3006
tp347
(I1480
I512
tp348
s(I3026
I3040
tp349
(I3144
I852
tp350
s(I3019
I3025
tp351
(I1316
I380
tp352
s(I3040
I3055
tp353
(I1899
I553
tp354
s(I3051
I3048
tp355
(I2297
I601
tp356
s(I3068
I3018
tp357
(I1388
I494
tp358
s(I3007
I3034
tp359
(I1585
I434
tp360
s(I3067
I3021
tp361
(I1836
I496
tp362
s(I3055
I3022
tp363
(I2410
I627
tp364
s(I3031
I3021
tp365
(I2142
I599
tp366
s(I3035
I3011
tp367
(I1588
I392
tp368
s(I3064
I3006
tp369
(I715
I216
tp370
s(I3005
I3006
tp371
(I1003
I280
tp372
s(I3034
I3048
tp373
(I3534
I957
tp374
s(I3045
I3055
tp375
(I2512
I668
tp376
s(I3060
I3076
tp377
(I945
I208
tp378
s(I3056
I3021
tp379
(I3856
I1092
tp380
s(I3077
I3005
tp381
(I1539
I490
tp382
s(I3077
I3080
tp383
(I802
I159
tp384
s(I3081
I3047
tp385
(I1843
I509
tp386
s(I3069
I3046
tp387
(I331
I115
tp388
s(I3048
I3074
tp389
(I3520
I984
tp390
s(I3016
I3006
tp391
(I2226
I596
tp392
s(I3046
I3036
tp393
(I2811
I606
tp394
s(I3024
I3011
tp395
(I2705
I633
tp396
s(I3076
I3080
tp397
(I908
I174
tp398
s(I3026
I3035
tp399
(I2527
I633
tp400
s(I3038
I3046
tp401
(I943
I288
tp402
s(I3019
I3030
tp403
(I2357
I646
tp404
s(I3077
I3022
tp405
(I2522
I655
tp406
s(I3040
I3046
tp407
(I2317
I626
tp408
s(I3079
I3038
tp409
(I2002
I480
tp410
s(I3076
I3011
tp411
(I1884
I552
tp412
s(I3014
I3030
tp413
(I1404
I453
tp414
s(I3065
I3042
tp415
(I1693
I483
tp416
s(I3007
I3011
tp417
(I1930
I521
tp418
s(I3067
I3010
tp419
(I1459
I371
tp420
s(I3006
I3014
tp421
(I2868
I822
tp422
s(I3025
I3058
tp423
(I4722
I1205
tp424
s(I3038
I3055
tp425
(I518
I206
tp426
s(I3055
I3031
tp427
(I100
I39
tp428
s(I3031
I3018
tp429
(I1019
I325
tp430
s(I3035
I3032
tp431
(I667
I237
tp432
s(I3063
I3069
tp433
(I660
I313
tp434
s(I3060
I3008
tp435
(I1881
I584
tp436
s(I3023
I3037
tp437
(I2551
I511
tp438
s(I3037
I3054
tp439
(I1309
I298
tp440
s(I3032
I3019
tp441
(I1682
I462
tp442
s(I3034
I3059
tp443
(I1575
I433
tp444
s(I3047
I3060
tp445
(I989
I302
tp446
s(I3059
I3049
tp447
(I2929
I1001
tp448
s(I3060
I3075
tp449
(I1117
I292
tp450
s(I3058
I3032
tp451
(I3168
I876
tp452
s(I3067
I3078
tp453
(I2796
I801
tp454
s(I3014
I3006
tp455
(I3022
I892
tp456
s(I3048
I3081
tp457
(I2429
I545
tp458
s(I3062
I3081
tp459
(I2263
I575
tp460
s(I3046
I3031
tp461
(I1222
I309
tp462
s(I3019
I3023
tp463
(I2657
I724
tp464
s(I3040
I3069
tp465
(I2485
I711
tp466
s(I3079
I3031
tp467
(I2536
I628
tp468
s(I3051
I3046
tp469
(I1094
I318
tp470
s(I3068
I3032
tp471
(I809
I350
tp472
s(I3053
I3062
tp473
(I2789
I811
tp474
s(I3076
I3018
tp475
(I1253
I473
tp476
s(I3051
I3082
tp477
(I2246
I639
tp478
s(I3065
I3051
tp479
(I2355
I634
tp480
s(I3067
I3035
tp481
(I1701
I512
tp482
s(I3028
I3064
tp483
(I1634
I384
tp484
s(I3025
I3051
tp485
(I2241
I598
tp486
s(I3036
I3030
tp487
(I2302
I550
tp488
s(I3038
I3030
tp489
(I722
I171
tp490
s(I3055
I3036
tp491
(I2214
I546
tp492
s(I3031
I3011
tp493
(I2065
I533
tp494
s(I3035
I3025
tp495
(I2457
I583
tp496
s(I3075
I3027
tp497
(I1543
I475
tp498
s(I3063
I3066
tp499
(I2848
I919
tp500
s(I3067
I3077
tp501
(I879
I234
tp502
s(I3049
I3058
tp503
(I3891
I971
tp504
s(I3023
I3034
tp505
(I2996
I827
tp506
s(I3032
I3026
tp507
(I2007
I639
tp508
s(I3032
I3079
tp509
(I2993
I805
tp510
s(I3034
I3066
tp511
(I4557
I1260
tp512
s(I3059
I3054
tp513
(I2603
I650
tp514
s(I3060
I3082
tp515
(I3476
I929
tp516
s(I3056
I3067
tp517
(I2017
I596
tp518
s(I3058
I3078
tp519
(I3932
I937
tp520
s(I3058
I3027
tp521
(I2579
I693
tp522
s(I3079
I3007
tp523
(I2688
I743
tp524
s(I3069
I3064
tp525
(I1233
I368
tp526
s(I3046
I3068
tp527
(I486
I309
tp528
s(I3046
I3022
tp529
(I1972
I471
tp530
s(I3022
I3051
tp531
(I2412
I662
tp532
s(I3026
I3021
tp533
(I3295
I746
tp534
s(I3040
I3060
tp535
(I3240
I819
tp536
s(I3068
I3031
tp537
(I2049
I474
tp538
s(I3051
I3075
tp539
(I455
I126
tp540
s(I3065
I3052
tp541
(I3561
I1041
tp542
s(I3007
I3057
tp543
(I2614
I691
tp544
s(I3067
I3024
tp545
(I1922
I705
tp546
s(I3011
I3007
tp547
(I2290
I679
tp548
s(I3006
I3056
tp549
(I1333
I359
tp550
s(I3025
I3052
tp551
(I2895
I814
tp552
s(I3055
I3081
tp553
(I1774
I420
tp554
s(I3018
I3031
tp555
(I1014
I430
tp556
s(I3038
I3033
tp557
(I1061
I321
tp558
s(I3055
I3045
tp559
(I2249
I530
tp560
s(I3031
I3032
tp561
(I876
I295
tp562
s(I3035
I3030
tp563
(I2288
I652
tp564
s(I3075
I3032
tp565
(I1202
I401
tp566
s(I3063
I3059
tp567
(I1837
I608
tp568
s(I3064
I3027
tp569
(I1646
I589
tp570
s(I3049
I3067
tp571
(I1889
I545
tp572
s(I3047
I3027
tp573
(I2860
I822
tp574
s(I3030
I3007
tp575
(I1513
I473
tp576
s(I3037
I3040
tp577
(I4250
I1219
tp578
s(I3032
I3033
tp579
(I1408
I443
tp580
s(I3046
I3074
tp581
(I1904
I491
tp582
s(I3027
I3020
tp583
(I2988
I782
tp584
s(I3062
I3048
tp585
(I1381
I349
tp586
s(I3064
I3078
tp587
(I3616
I1011
tp588
s(I3023
I3076
tp589
(I2138
I577
tp590
s(I3059
I3063
tp591
(I1776
I592
tp592
s(I3058
I3018
tp593
(I3311
I906
tp594
s(I3069
I3057
tp595
(I3393
I836
tp596
s(I3027
I3005
tp597
(I1553
I441
tp598
s(I3022
I3058
tp599
(I1266
I231
tp600
s(I3019
I3069
tp601
(I2290
I687
tp602
s(I3051
I3028
tp603
(I2447
I851
tp604
s(I3035
I3006
tp605
(I1153
I311
tp606
s(I3067
I3049
tp607
(I1898
I565
tp608
s(I3026
I3082
tp609
(I2760
I760
tp610
s(I3006
I3067
tp611
(I817
I243
tp612
s(I3025
I3045
tp613
(I1313
I455
tp614
s(I3018
I3038
tp615
(I1486
I589
tp616
s(I3038
I3008
tp617
(I1893
I706
tp618
s(I3055
I3042
tp619
(I1758
I467
tp620
s(I3031
I3025
tp621
(I2415
I617
tp622
s(I3063
I3016
tp623
(I1602
I574
tp624
s(I3064
I3034
tp625
(I910
I203
tp626
s(I3049
I3068
tp627
(I1193
I406
tp628
s(I3065
I3079
tp629
(I1960
I467
tp630
s(I3042
I3075
tp631
(I2408
I652
tp632
s(I3078
I3064
tp633
(I2859
I807
tp634
s(I3037
I3065
tp635
(I3633
I833
tp636
s(I3030
I3018
tp637
(I2380
I689
tp638
s(I3034
I3020
tp639
(I1542
I435
tp640
s(I3010
I3057
tp641
(I2215
I623
tp642
s(I3027
I3029
tp643
(I399
I119
tp644
s(I3035
I3078
tp645
(I3043
I866
tp646
s(I3046
I3064
tp647
(I1312
I367
tp648
s(I3075
I3047
tp649
(I1299
I309
tp650
s(I3008
I3049
tp651
(I1486
I518
tp652
s(I3037
I3076
tp653
(I2597
I657
tp654
s(I3051
I3021
tp655
(I2270
I641
tp656
s(I3067
I3081
tp657
(I1968
I463
tp658
s(I3007
I3047
tp659
(I1885
I518
tp660
s(I3067
I3054
tp661
(I1634
I402
tp662
s(I3006
I3042
tp663
(I2371
I646
tp664
s(I3025
I3038
tp665
(I2743
I784
tp666
s(I3080
I3018
tp667
(I1802
I628
tp668
s(I3018
I3033
tp669
(I730
I351
tp670
s(I3082
I3026
tp671
(I3338
I885
tp672
s(I3038
I3019
tp673
(I1740
I553
tp674
s(I3055
I3051
tp675
(I228
I83
tp676
s(I3031
I3054
tp677
(I1940
I505
tp678
s(I3038
I3082
tp679
(I1560
I406
tp680
s(I3030
I3079
tp681
(I1229
I279
tp682
s(I3075
I3014
tp683
(I2799
I795
tp684
s(I3007
I3075
tp685
(I1290
I458
tp686
s(I3066
I3021
tp687
(I2962
I667
tp688
s(I3042
I3022
tp689
(I860
I168
tp690
s(I3005
I3035
tp691
(I355
I84
tp692
s(I3078
I3059
tp693
(I3788
I952
tp694
s(I3019
I3076
tp695
(I938
I272
tp696
s(I3030
I3021
tp697
(I1247
I274
tp698
s(I3034
I3031
tp699
(I1453
I443
tp700
s(I3027
I3034
tp701
(I2194
I598
tp702
s(I3062
I3066
tp703
(I2243
I603
tp704
s(I3023
I3082
tp705
(I793
I198
tp706
s(I3021
I3078
tp707
(I2927
I710
tp708
s(I3056
I3040
tp709
(I3025
I852
tp710
s(I3058
I3068
tp711
(I3572
I1096
tp712
s(I3074
I3055
tp713
(I1242
I400
tp714
s(I3033
I3075
tp715
(I357
I87
tp716
s(I3046
I3059
tp717
(I2267
I549
tp718
s(I3022
I3068
tp719
(I2486
I826
tp720
s(I3008
I3040
tp721
(I1415
I450
tp722
s(I3019
I3051
tp723
(I1143
I343
tp724
s(I3057
I3037
tp725
(I4759
I1250
tp726
s(I3075
I3006
tp727
(I527
I178
tp728
s(I3007
I3052
tp729
(I1211
I413
tp730
s(I3067
I3047
tp731
(I2300
I585
tp732
s(I3023
I3005
tp733
(I2356
I670
tp734
s(I3021
I3037
tp735
(I1781
I343
tp736
s(I3006
I3045
tp737
(I2752
I659
tp738
s(I3025
I3031
tp739
(I2369
I640
tp740
s(I3018
I3008
tp741
(I1087
I348
tp742
s(I3082
I3037
tp743
(I1850
I354
tp744
s(I3031
I3047
tp745
(I1858
I464
tp746
s(I3075
I3023
tp747
(I2024
I553
tp748
s(I3063
I3038
tp749
(I952
I449
tp750
s(I3064
I3048
tp751
(I2716
I786
tp752
s(I3007
I3080
tp753
(I2847
I757
tp754
s(I3066
I3028
tp755
(I1509
I540
tp756
s(I3005
I3080
tp757
(I2260
I596
tp758
s(I3023
I3006
tp759
(I2199
I605
tp760
s(I3034
I3038
tp761
(I1923
I589
tp762
s(I3010
I3011
tp763
(I1588
I530
tp764
s(I3062
I3069
tp765
(I603
I210
tp766
s(I3059
I3018
tp767
(I1207
I497
tp768
s(I3056
I3047
tp769
(I659
I144
tp770
s(I3058
I3063
tp771
(I2732
I772
tp772
s(I3056
I3078
tp773
(I4816
I1397
tp774
s(I3074
I3046
tp775
(I1902
I596
tp776
s(I3033
I3076
tp777
(I252
I73
tp778
s(I3008
I3047
tp779
(I1181
I332
tp780
s(I3019
I3040
tp781
(I2679
I883
tp782
s(I3057
I3030
tp783
(I3661
I1018
tp784
s(I3036
I3059
tp785
(I3034
I722
tp786
s(I3068
I3067
tp787
(I1973
I506
tp788
s(I3067
I3068
tp789
(I1292
I523
tp790
s(I3063
I3079
tp791
(I2505
I761
tp792
s(I3024
I3047
tp793
(I2894
I644
tp794
s(I3021
I3030
tp795
(I1136
I341
tp796
s(I3006
I3052
tp797
(I1134
I379
tp798
s(I3080
I3064
tp799
(I2383
I708
tp800
s(I3018
I3019
tp801
(I783
I269
tp802
s(I3020
I3035
tp803
(I2542
I708
tp804
s(I3055
I3065
tp805
(I2490
I697
tp806
s(I3031
I3068
tp807
(I1318
I499
tp808
s(I3063
I3031
tp809
(I788
I366
tp810
s(I3064
I3055
tp811
(I647
I266
tp812
s(I3049
I3031
tp813
(I1925
I503
tp814
s(I3042
I3008
tp815
(I3191
I1005
tp816
s(I3005
I3053
tp817
(I1257
I295
tp818
s(I3078
I3053
tp819
(I4516
I1184
tp820
s(I3034
I3033
tp821
(I1168
I351
tp822
s(I3010
I3034
tp823
(I986
I355
tp824
s(I3027
I3048
tp825
(I1723
I417
tp826
s(I3062
I3060
tp827
(I2170
I556
tp828
s(I3048
I3064
tp829
(I2927
I859
tp830
s(I3069
I3080
tp831
(I2390
I564
tp832
s(I3058
I3054
tp833
(I1011
I227
tp834
s(I3006
I3080
tp835
(I2011
I480
tp836
s(I3047
I3077
tp837
(I2075
I575
tp838
s(I3011
I3059
tp839
(I1531
I449
tp840
s(I3008
I3081
tp841
(I2332
I651
tp842
s(I3068
I3058
tp843
(I3641
I769
tp844
s(I3074
I3078
tp845
(I3684
I1074
tp846
s(I3021
I3023
tp847
(I817
I235
tp848
s(I3024
I3074
tp849
(I2050
I473
tp850
s(I3018
I3058
tp851
(I3464
I1010
tp852
s(I3082
I3023
tp853
(I793
I232
tp854
s(I3052
I3051
tp855
(I1205
I363
tp856
s(I3064
I3062
tp857
(I2005
I659
tp858
s(I3049
I3032
tp859
(I1171
I326
tp860
s(I3066
I3046
tp861
(I1908
I571
tp862
s(I3042
I3035
tp863
(I2989
I826
tp864
s(I3005
I3046
tp865
(I1523
I490
tp866
s(I3065
I3075
tp867
(I2764
I746
tp868
s(I3016
I3030
tp869
(I609
I157
tp870
s(I3027
I3057
tp871
(I3422
I860
tp872
s(I3062
I3023
tp873
(I707
I151
tp874
s(I3029
I3037
tp875
(I3037
I673
tp876
s(I3024
I3068
tp877
(I896
I214
tp878
s(I3059
I3032
tp879
(I1861
I628
tp880
s(I3054
I3023
tp881
(I1846
I491
tp882
s(I3058
I3049
tp883
(I3684
I1000
tp884
s(I3074
I3064
tp885
(I724
I222
tp886
s(I3076
I3060
tp887
(I852
I138
tp888
s(I3047
I3074
tp889
(I752
I183
tp890
s(I3011
I3064
tp891
(I1626
I422
tp892
s(I3005
I3014
tp893
(I3118
I937
tp894
s(I3054
I3006
tp895
(I2707
I737
tp896
s(I3057
I3008
tp897
(I1462
I418
tp898
s(I3033
I3059
tp899
(I711
I150
tp900
s(I3021
I3016
tp901
(I1132
I304
tp902
s(I3019
I3055
tp903
(I1242
I367
tp904
s(I3018
I3069
tp905
(I1699
I626
tp906
s(I3082
I3062
tp907
(I812
I225
tp908
s(I3031
I3058
tp909
(I2536
I612
tp910
s(I3052
I3042
tp911
(I3191
I911
tp912
s(I3010
I3005
tp913
(I1912
I635
tp914
s(I3064
I3069
tp915
(I1233
I423
tp916
s(I3042
I3026
tp917
(I2414
I772
tp918
s(I3056
I3005
tp919
(I1939
I559
tp920
s(I3081
I3031
tp921
(I1865
I516
tp922
s(I3037
I3030
tp923
(I2875
I700
tp924
s(I3030
I3049
tp925
(I1269
I389
tp926
s(I3016
I3037
tp927
(I2902
I556
tp928
s(I3014
I3077
tp929
(I2650
I767
tp930
s(I3027
I3062
tp931
(I1011
I290
tp932
s(I3062
I3014
tp933
(I1747
I487
tp934
s(I3048
I3046
tp935
(I1987
I566
tp936
s(I3054
I3030
tp937
(I2166
I618
tp938
s(I3058
I3040
tp939
(I4166
I1182
tp940
s(I3074
I3059
tp941
(I1374
I382
tp942
s(I3076
I3059
tp943
(I459
I76
tp944
s(I3022
I3032
tp945
(I3160
I913
tp946
s(I3008
I3020
tp947
(I2250
I647
tp948
s(I3036
I3055
tp949
(I2374
I587
tp950
s(I3033
I3060
tp951
(I967
I224
tp952
s(I3053
I3006
tp953
(I950
I265
tp954
s(I3031
I3078
tp955
(I3102
I904
tp956
s(I3082
I3057
tp957
(I4764
I1285
tp958
s(I3020
I3008
tp959
(I2284
I639
tp960
s(I3037
I3006
tp961
(I2983
I795
tp962
s(I3049
I3018
tp963
(I1966
I526
tp964
s(I3066
I3048
tp965
(I3557
I766
tp966
s(I3005
I3064
tp967
(I344
I116
tp968
s(I3078
I3030
tp969
(I1738
I528
tp970
s(I3054
I3081
tp971
(I2078
I486
tp972
s(I3069
I3023
tp973
(I912
I241
tp974
s(I3052
I3081
tp975
(I3166
I824
tp976
s(I3030
I3040
tp977
(I3233
I961
tp978
s(I3062
I3033
tp979
(I1768
I488
tp980
s(I3029
I3055
tp981
(I1100
I316
tp982
s(I3081
I3080
tp983
(I664
I141
tp984
s(I3077
I3047
tp985
(I2179
I567
tp986
s(I3040
I3021
tp987
(I3941
I1113
tp988
s(I3074
I3018
tp989
(I142
I126
tp990
s(I3068
I3074
tp991
(I1514
I503
tp992
s(I3014
I3065
tp993
(I847
I245
tp994
s(I3028
I3016
tp995
(I853
I233
tp996
s(I3008
I3011
tp997
(I778
I355
tp998
s(I3022
I3074
tp999
(I3429
I959
tp1000
s(I3033
I3069
tp1001
(I1604
I488
tp1002
s(I3018
I3055
tp1003
(I1113
I469
tp1004
s(I3082
I3064
tp1005
(I2684
I835
tp1006
s(I3032
I3042
tp1007
(I2342
I671
tp1008
s(I3052
I3024
tp1009
(I2060
I746
tp1010
s(I3047
I3037
tp1011
(I4138
I1056
tp1012
s(I3005
I3057
tp1013
(I1973
I480
tp1014
s(I3069
I3016
tp1015
(I939
I254
tp1016
s(I3030
I3067
tp1017
(I1284
I391
tp1018
s(I3034
I3005
tp1019
(I998
I319
tp1020
s(I3029
I3074
tp1021
(I2189
I633
tp1022
s(I3062
I3024
tp1023
(I1619
I613
tp1024
s(I3029
I3048
tp1025
(I1924
I484
tp1026
s(I3048
I3028
tp1027
(I2588
I846
tp1028
s(I3026
I3069
tp1029
(I2000
I492
tp1030
s(I3077
I3040
tp1031
(I2649
I844
tp1032
s(I3014
I3056
tp1033
(I4186
I1157
tp1034
s(I3011
I3055
tp1035
(I2144
I600
tp1036
s(I3028
I3031
tp1037
(I2023
I481
tp1038
s(I3008
I3034
tp1039
(I740
I235
tp1040
s(I3022
I3077
tp1041
(I2226
I546
tp1042
s(I3036
I3069
tp1043
(I2098
I566
tp1044
s(I3033
I3014
tp1045
(I2747
I768
tp1046
s(I3035
I3046
tp1047
(I1769
I524
tp1048
s(I3036
I3078
tp1049
(I3311
I782
tp1050
s(I3032
I3049
tp1051
(I1055
I418
tp1052
s(I3052
I3023
tp1053
(I2913
I845
tp1054
s(I3047
I3034
tp1055
(I442
I101
tp1056
s(I3078
I3008
tp1057
(I4103
I1232
tp1058
s(I3030
I3058
tp1059
(I2704
I543
tp1060
s(I3016
I3058
tp1061
(I2755
I511
tp1062
s(I3048
I3035
tp1063
(I3493
I974
tp1064
s(I3024
I3032
tp1065
(I1379
I307
tp1066
s(I3047
I3062
tp1067
(I3218
I893
tp1068
s(I3054
I3051
tp1069
(I2229
I604
tp1070
s(I3077
I3049
tp1071
(I2720
I911
tp1072
s(I3040
I3035
tp1073
(I1445
I391
tp1074
s(I3074
I3036
tp1075
(I3369
I901
tp1076
s(I3076
I3048
tp1077
(I2494
I673
tp1078
s(I3014
I3051
tp1079
(I2543
I754
tp1080
s(I3011
I3028
tp1081
(I3108
I999
tp1082
s(I3028
I3038
tp1083
(I2145
I550
tp1084
s(I3008
I3025
tp1085
(I1954
I516
tp1086
s(I3020
I3076
tp1087
(I1961
I568
tp1088
s(I3057
I3052
tp1089
(I2337
I717
tp1090
s(I3036
I3018
tp1091
(I3493
I950
tp1092
s(I3075
I3057
tp1093
(I2117
I523
tp1094
s(I3021
I3052
tp1095
(I3249
I1009
tp1096
s(I3059
I3081
tp1097
(I1293
I308
tp1098
s(I3023
I3064
tp1099
(I2144
I639
tp1100
s(I3032
I3056
tp1101
(I1756
I416
tp1102
s(I3052
I3014
tp1103
(I3807
I1061
tp1104
s(I3049
I3005
tp1105
(I1208
I342
tp1106
s(I3042
I3062
tp1107
(I756
I179
tp1108
s(I3056
I3033
tp1109
(I1322
I407
tp1110
s(I3069
I3034
tp1111
(I2144
I540
tp1112
s(I3016
I3065
tp1113
(I1199
I360
tp1114
s(I3029
I3066
tp1115
(I2007
I535
tp1116
s(I3059
I3005
tp1117
(I1748
I580
tp1118
s(I3026
I3055
tp1119
(I2835
I759
tp1120
s(I3054
I3058
tp1121
(I1351
I283
tp1122
s(I3040
I3026
tp1123
(I2700
I764
tp1124
s(I3051
I3069
tp1125
(I814
I238
tp1126
s(I3074
I3031
tp1127
(I1142
I361
tp1128
s(I3076
I3031
tp1129
(I705
I263
tp1130
s(I3014
I3042
tp1131
(I1111
I342
tp1132
s(I3065
I3022
tp1133
(I2345
I529
tp1134
s(I3007
I3031
tp1135
(I1350
I417
tp1136
s(I3006
I3026
tp1137
(I2696
I817
tp1138
s(I3020
I3075
tp1139
(I2006
I570
tp1140
s(I3082
I3074
tp1141
(I3277
I960
tp1142
s(I3038
I3067
tp1143
(I252
I269
tp1144
s(I3057
I3045
tp1145
(I1824
I534
tp1146
s(I3035
I3060
tp1147
(I2450
I595
tp1148
s(I3075
I3062
tp1149
(I1901
I545
tp1150
s(I3065
I3007
tp1151
(I2380
I704
tp1152
s(I3006
I3005
tp1153
(I564
I175
tp1154
s(I3057
I3074
tp1155
(I1489
I409
tp1156
s(I3034
I3076
tp1157
(I1225
I388
tp1158
s(I3032
I3063
tp1159
(I551
I208
tp1160
s(I3034
I3047
tp1161
(I442
I97
tp1162
s(I3081
I3060
tp1163
(I852
I199
tp1164
s(I3069
I3027
tp1165
(I185
I180
tp1166
s(I3016
I3040
tp1167
(I3493
I1015
tp1168
s(I3027
I3077
tp1169
(I1531
I408
tp1170
s(I3024
I3030
tp1171
(I958
I293
tp1172
s(I3026
I3046
tp1173
(I1668
I399
tp1174
s(I3019
I3035
tp1175
(I1520
I520
tp1176
s(I3077
I3035
tp1177
(I1427
I461
tp1178
s(I3040
I3049
tp1179
(I1749
I543
tp1180
s(I3079
I3051
tp1181
(I2664
I673
tp1182
s(I3051
I3058
tp1183
(I2664
I654
tp1184
s(I3076
I3038
tp1185
(I998
I331
tp1186
s(I3065
I3031
tp1187
(I2227
I590
tp1188
s(I3007
I3036
tp1189
(I3268
I872
tp1190
s(I3028
I3052
tp1191
(I2420
I647
tp1192
s(I3006
I3029
tp1193
(I1358
I403
tp1194
s(I3066
I3075
tp1195
(I3203
I853
tp1196
s(I3038
I3042
tp1197
(I1300
I315
tp1198
s(I3055
I3008
tp1199
(I1420
I548
tp1200
s(I3035
I3021
tp1201
(I3151
I889
tp1202
s(I3063
I3054
tp1203
(I2334
I766
tp1204
s(I3060
I3059
tp1205
(I440
I80
tp1206
s(I3023
I3022
tp1207
(I1138
I235
tp1208
s(I3034
I3054
tp1209
(I3305
I904
tp1210
s(I3011
I3075
tp1211
(I1533
I420
tp1212
s(I3056
I3031
tp1213
(I1889
I524
tp1214
s(I3020
I3074
tp1215
(I1855
I551
tp1216
s(I3081
I3069
tp1217
(I2813
I796
tp1218
s(I3069
I3052
tp1219
(I2019
I604
tp1220
s(I3016
I3047
tp1221
(I3433
I865
tp1222
s(I3033
I3045
tp1223
(I1956
I471
tp1224
s(I3034
I3019
tp1225
(I572
I174
tp1226
s(I3027
I3082
tp1227
(I1672
I452
tp1228
s(I3046
I3034
tp1229
(I2218
I542
tp1230
s(I3024
I3021
tp1231
(I2137
I510
tp1232
s(I3068
I3019
tp1233
(I2142
I681
tp1234
s(I3014
I3036
tp1235
(I2546
I491
tp1236
s(I3067
I3020
tp1237
(I2684
I722
tp1238
s(I3011
I3019
tp1239
(I807
I254
tp1240
s(I3028
I3051
tp1241
(I2152
I525
tp1242
s(I3006
I3036
tp1243
(I2827
I725
tp1244
s(I3025
I3064
tp1245
(I2458
I672
tp1246
s(I3038
I3045
tp1247
(I2853
I695
tp1248
s(I3031
I3020
tp1249
(I2242
I601
tp1250
s(I3035
I3010
tp1251
(I2291
I596
tp1252
s(I3063
I3047
tp1253
(I1968
I550
tp1254
s(I3064
I3007
tp1255
(I793
I344
tp1256
s(I3067
I3005
tp1257
(I1347
I428
tp1258
s(I3060
I3066
tp1259
(I4210
I1130
tp1260
s(I3023
I3031
tp1261
(I1593
I423
tp1262
s(I3031
I3005
tp1263
(I763
I247
tp1264
s(I3034
I3049
tp1265
(I2173
I733
tp1266
s(I3011
I3080
tp1267
(I1601
I486
tp1268
s(I3060
I3077
tp1269
(I1084
I272
tp1270
s(I3058
I3038
tp1271
(I2218
I551
tp1272
s(I3016
I3054
tp1273
(I1971
I452
tp1274
s(I3048
I3075
tp1275
(I2912
I800
tp1276
s(I3046
I3037
tp1277
(I3385
I747
tp1278
s(I3026
I3032
tp1279
(I2135
I533
tp1280
s(I3077
I3021
tp1281
(I2155
I588
tp1282
s(I3040
I3047
tp1283
(I2722
I659
tp1284
s(I3051
I3040
tp1285
(I1745
I557
tp1286
s(I3076
I3020
tp1287
(I2063
I540
tp1288
s(I3014
I3031
tp1289
(I2415
I710
tp1290
s(I3025
I3057
tp1291
(I629
I159
tp1292
s(I3036
I3032
tp1293
(I3350
I920
tp1294
s(I3018
I3080
tp1295
(I1823
I538
tp1296
s(I3055
I3030
tp1297
(I1180
I323
tp1298
s(I3067
I3079
tp1299
(I2203
I537
tp1300
s(I3063
I3068
tp1301
(I587
I333
tp1302
s(I3064
I3014
tp1303
(I2903
I909
tp1304
s(I3023
I3036
tp1305
(I1977
I370
tp1306
s(I3016
I3019
tp1307
(I2786
I771
tp1308
s(I3032
I3020
tp1309
(I2620
I698
tp1310
s(I3034
I3056
tp1311
(I678
I154
tp1312
s(I3010
I3045
tp1313
(I1304
I313
tp1314
s(I3047
I3063
tp1315
(I1946
I540
tp1316
s(I3058
I3033
tp1317
(I2780
I704
tp1318
s(I3081
I3055
tp1319
(I1766
I477
tp1320
s(I3014
I3007
tp1321
(I2568
I824
tp1322
s(I3048
I3082
tp1323
(I691
I150
tp1324
s(I3026
I3027
tp1325
(I1989
I541
tp1326
s(I3079
I3030
tp1327
(I1525
I371
tp1328
s(I3051
I3033
tp1329
(I660
I181
tp1330
s(I3068
I3033
tp1331
(I2537
I600
tp1332
s(I3076
I3019
tp1333
(I1046
I329
tp1334
s(I3014
I3022
tp1335
(I1794
I371
tp1336
s(I3007
I3019
tp1337
(I1769
I562
tp1338
s(I3067
I3034
tp1339
(I1889
I531
tp1340
s(I3028
I3065
tp1341
(I1214
I292
tp1342
s(I3006
I3022
tp1343
(I3023
I806
tp1344
s(I3055
I3075
tp1345
(I633
I193
tp1346
s(I3036
I3031
tp1347
(I2474
I625
tp1348
s(I3038
I3031
tp1349
(I573
I196
tp1350
s(I3080
I3082
tp1351
(I2783
I756
tp1352
s(I3031
I3010
tp1353
(I1282
I305
tp1354
s(I3035
I3024
tp1355
(I1736
I633
tp1356
s(I3075
I3026
tp1357
(I3222
I995
tp1358
s(I3067
I3076
tp1359
(I804
I222
tp1360
s(I3030
I3006
tp1361
(I1967
I541
tp1362
s(I3037
I3046
tp1363
(I2958
I792
tp1364
s(I3032
I3027
tp1365
(I1583
I526
tp1366
s(I3034
I3067
tp1367
(I1669
I501
tp1368
s(I3027
I3014
tp1369
(I1909
I538
tp1370
s(I3047
I3052
tp1371
(I1860
I572
tp1372
s(I3064
I3077
tp1373
(I1521
I444
tp1374
s(I3059
I3057
tp1375
(I2052
I569
tp1376
s(I3049
I3081
tp1377
(I3754
I919
tp1378
s(I3075
I3081
tp1379
(I1546
I355
tp1380
s(I3046
I3023
tp1381
(I834
I236
tp1382
s(I3022
I3048
tp1383
(I1049
I174
tp1384
s(I3026
I3018
tp1385
(I2930
I733
tp1386
s(I3079
I3023
tp1387
(I985
I228
tp1388
s(I3051
I3038
tp1389
(I686
I233
tp1390
s(I3068
I3024
tp1391
(I638
I170
tp1392
s(I3007
I3040
tp1393
(I1412
I435
tp1394
s(I3051
I3074
tp1395
(I1016
I292
tp1396
s(I3007
I3056
tp1397
(I1843
I516
tp1398
s(I3067
I3027
tp1399
(I793
I258
tp1400
s(I3011
I3006
tp1401
(I1502
I413
tp1402
s(I3006
I3057
tp1403
(I2194
I576
tp1404
s(I3055
I3080
tp1405
(I1519
I362
tp1406
s(I3016
I3078
tp1407
(I1712
I528
tp1408
s(I3030
I3082
tp1409
(I1093
I276
tp1410
s(I3075
I3035
tp1411
(I1043
I333
tp1412
s(I3063
I3058
tp1413
(I2930
I873
tp1414
s(I3064
I3028
tp1415
(I1882
I687
tp1416
s(I3049
I3066
tp1417
(I2519
I624
tp1418
s(I3060
I3031
tp1419
(I1623
I454
tp1420
s(I3005
I3016
tp1421
(I2369
I708
tp1422
s(I3032
I3034
tp1423
(I1111
I316
tp1424
s(I3034
I3010
tp1425
(I1853
I509
tp1426
s(I3046
I3075
tp1427
(I1550
I394
tp1428
s(I3027
I3023
tp1429
(I1134
I295
tp1430
s(I3062
I3049
tp1431
(I1595
I475
tp1432
s(I3047
I3045
tp1433
(I1978
I541
tp1434
s(I3023
I3079
tp1435
(I985
I227
tp1436
s(I3059
I3062
tp1437
(I2372
I684
tp1438
s(I3056
I3059
tp1439
(I1264
I379
tp1440
s(I3069
I3056
tp1441
(I2532
I619
tp1442
s(I3046
I3014
tp1443
(I1610
I477
tp1444
s(I3022
I3059
tp1445
(I2910
I757
tp1446
s(I3019
I3068
tp1447
(I2123
I782
tp1448
s(I3078
I3075
tp1449
(I3319
I879
tp1450
s(I3051
I3031
tp1451
(I128
I42
tp1452
s(I3068
I3055
tp1453
(I2105
I498
tp1454
s(I3007
I3065
tp1455
(I3088
I807
tp1456
s(I3067
I3048
tp1457
(I1863
I456
tp1458
s(I3006
I3064
tp1459
(I784
I238
tp1460
s(I3031
I3024
tp1461
(I2228
I808
tp1462
s(I3075
I3008
tp1463
(I1143
I328
tp1464
s(I3063
I3019
tp1465
(I1598
I546
tp1466
s(I3064
I3035
tp1467
(I573
I146
tp1468
s(I3007
I3077
tp1469
(I2135
I647
tp1470
s(I3065
I3078
tp1471
(I555
I175
tp1472
s(I3078
I3065
tp1473
(I555
I133
tp1474
s(I3037
I3064
tp1475
(I3360
I928
tp1476
s(I3030
I3019
tp1477
(I2527
I716
tp1478
s(I3034
I3021
tp1479
(I3507
I997
tp1480
s(I3027
I3028
tp1481
(I1873
I665
tp1482
s(I3062
I3040
tp1483
(I3154
I964
tp1484
s(I3047
I3042
tp1485
(I3619
I967
tp1486
s(I3056
I3081
tp1487
(I1795
I524
tp1488
s(I3046
I3065
tp1489
(I1844
I531
tp1490
s(I3022
I3066
tp1491
(I2570
I606
tp1492
s(I3037
I3075
tp1493
(I2910
I772
tp1494
s(I3057
I3035
tp1495
(I1720
I486
tp1496
s(I3051
I3020
tp1497
(I2370
I643
tp1498
s(I3068
I3046
tp1499
(I789
I145
tp1500
s(I3065
I3069
tp1501
(I1550
I435
tp1502
s(I3007
I3046
tp1503
(I1569
I430
tp1504
s(I3026
I3074
tp1505
(I2807
I699
tp1506
s(I3080
I3019
tp1507
(I1094
I305
tp1508
s(I3018
I3014
tp1509
(I3283
I1080
tp1510
s(I3082
I3027
tp1511
(I1342
I425
tp1512
s(I3038
I3016
tp1513
(I1048
I262
tp1514
s(I3031
I3049
tp1515
(I1944
I668
tp1516
s(I3030
I3076
tp1517
(I1906
I513
tp1518
s(I3063
I3008
tp1519
(I2155
I672
tp1520
s(I3064
I3042
tp1521
(I2406
I733
tp1522
s(I3007
I3074
tp1523
(I1275
I361
tp1524
s(I3066
I3018
tp1525
(I3686
I1026
tp1526
s(I3042
I3023
tp1527
(I278
I72
tp1528
s(I3005
I3034
tp1529
(I940
I213
tp1530
s(I3078
I3056
tp1531
(I4554
I1170
tp1532
s(I3045
I3054
tp1533
(I2981
I718
tp1534
s(I3034
I3028
tp1535
(I3017
I1010
tp1536
s(I3027
I3037
tp1537
(I2832
I650
tp1538
s(I3062
I3067
tp1539
(I1239
I326
tp1540
s(I3042
I3006
tp1541
(I2478
I677
tp1542
s(I3021
I3077
tp1543
(I1858
I486
tp1544
s(I3058
I3069
tp1545
(I2692
I734
tp1546
s(I3074
I3052
tp1547
(I1258
I441
tp1548
s(I3033
I3074
tp1549
(I1157
I349
tp1550
s(I3010
I3076
tp1551
(I669
I182
tp1552
s(I3022
I3069
tp1553
(I1607
I465
tp1554
s(I3057
I3036
tp1555
(I4696
I1241
tp1556
s(I3014
I3078
tp1557
(I1360
I413
tp1558
s(I3076
I3077
tp1559
(I519
I131
tp1560
s(I3007
I3055
tp1561
(I1450
I456
tp1562
s(I3067
I3046
tp1563
(I1195
I375
tp1564
s(I3060
I3005
tp1565
(I2220
I643
tp1566
s(I3021
I3036
tp1567
(I1206
I201
tp1568
s(I3082
I3034
tp1569
(I3536
I1023
tp1570
s(I3055
I3059
tp1571
(I1105
I267
tp1572
s(I3031
I3046
tp1573
(I1222
I363
tp1574
s(I3052
I3062
tp1575
(I2790
I837
tp1576
s(I3075
I3022
tp1577
(I2954
I780
tp1578
s(I3063
I3033
tp1579
(I1320
I504
tp1580
s(I3064
I3049
tp1581
(I1801
I595
tp1582
s(I3066
I3029
tp1583
(I2275
I621
tp1584
s(I3042
I3014
tp1585
(I1120
I316
tp1586
s(I3005
I3027
tp1587
(I1861
I617
tp1588
s(I3078
I3051
tp1589
(I2911
I767
tp1590
s(I3037
I3018
tp1591
(I3396
I942
tp1592
s(I3010
I3008
tp1593
(I1605
I558
tp1594
s(I3027
I3042
tp1595
(I1412
I362
tp1596
s(I3062
I3058
tp1597
(I2342
I537
tp1598
s(I3029
I3018
tp1599
(I2064
I622
tp1600
s(I3048
I3058
tp1601
(I964
I188
tp1602
s(I3059
I3021
tp1603
(I3057
I851
tp1604
s(I3074
I3047
tp1605
(I752
I170
tp1606
s(I3031
I3034
tp1607
(I1458
I388
tp1608
s(I3046
I3051
tp1609
(I1094
I267
tp1610
s(I3008
I3064
tp1611
(I848
I219
tp1612
s(I3025
I3006
tp1613
(I1856
I500
tp1614
s(I3057
I3029
tp1615
(I3227
I919
tp1616
s(I3068
I3060
tp1617
(I3446
I766
tp1618
s(I3063
I3078
tp1619
(I3020
I891
tp1620
s(I3021
I3029
tp1621
(I1052
I411
tp1622
s(I3018
I3016
tp1623
(I2534
I851
tp1624
s(I3055
I3064
tp1625
(I1083
I349
tp1626
s(I3033
I3023
tp1627
(I1971
I525
tp1628
s(I3028
I3074
tp1629
(I2230
I534
tp1630
s(I3063
I3030
tp1631
(I1276
I482
tp1632
s(I3064
I3056
tp1633
(I1298
I282
tp1634
s(I3049
I3030
tp1635
(I1255
I485
tp1636
s(I3045
I3042
tp1637
(I3116
I764
tp1638
s(I3005
I3052
tp1639
(I624
I279
tp1640
s(I3078
I3042
tp1641
(I2249
I615
tp1642
s(I3040
I3077
tp1643
(I2584
I744
tp1644
s(I3030
I3036
tp1645
(I2277
I447
tp1646
s(I3016
I3024
tp1647
(I1207
I501
tp1648
s(I3027
I3051
tp1649
(I919
I238
tp1650
s(I3029
I3027
tp1651
(I254
I98
tp1652
s(I3048
I3065
tp1653
(I3271
I718
tp1654
s(I3058
I3055
tp1655
(I2193
I542
tp1656
s(I3046
I3062
tp1657
(I1336
I340
tp1658
s(I3047
I3076
tp1659
(I1641
I448
tp1660
s(I3046
I3042
tp1661
(I1113
I303
tp1662
s(I3022
I3023
tp1663
(I1224
I310
tp1664
s(I3008
I3082
tp1665
(I3385
I955
tp1666
s(I3057
I3022
tp1667
(I4892
I1322
tp1668
s(I3033
I3049
tp1669
(I2600
I876
tp1670
s(I3068
I3059
tp1671
(I3054
I704
tp1672
s(I3067
I3060
tp1673
(I1656
I361
tp1674
s(I3021
I3022
tp1675
(I368
I66
tp1676
s(I3024
I3075
tp1677
(I2539
I642
tp1678
s(I3018
I3059
tp1679
(I979
I350
tp1680
s(I3082
I3020
tp1681
(I4330
I1206
tp1682
s(I3038
I3005
tp1683
(I1336
I443
tp1684
s(I3064
I3063
tp1685
(I626
I273
tp1686
s(I3066
I3047
tp1687
(I4480
I1148
tp1688
s(I3042
I3032
tp1689
(I2747
I790
tp1690
s(I3005
I3045
tp1691
(I3002
I775
tp1692
s(I3037
I3036
tp1693
(I620
I159
tp1694
s(I3030
I3031
tp1695
(I1360
I359
tp1696
s(I3016
I3031
tp1697
(I1619
I414
tp1698
s(I3027
I3056
tp1699
(I2561
I641
tp1700
s(I3029
I3036
tp1701
(I2463
I531
tp1702
s(I3048
I3040
tp1703
(I4249
I1244
tp1704
s(I3024
I3069
tp1705
(I1069
I250
tp1706
s(I3059
I3035
tp1707
(I1700
I572
tp1708
s(I3054
I3020
tp1709
(I4254
I1105
tp1710
s(I3058
I3046
tp1711
(I2981
I810
tp1712
s(I3074
I3065
tp1713
(I3645
I1052
tp1714
s(I3011
I3067
tp1715
(I2348
I665
tp1716
s(I3022
I3030
tp1717
(I1504
I402
tp1718
s(I3008
I3062
tp1719
(I2724
I790
tp1720
s(I3054
I3007
tp1721
(I2435
I729
tp1722
s(I3033
I3058
tp1723
(I2928
I698
tp1724
s(I3016
I3034
tp1725
(I3022
I819
tp1726
s(I3023
I3047
tp1727
(I3407
I874
tp1728
s(I3080
I3047
tp1729
(I1381
I402
tp1730
s(I3018
I3066
tp1731
(I3780
I1196
tp1732
s(I3082
I3063
tp1733
(I2118
I686
tp1734
s(I3020
I3018
tp1735
(I1756
I607
tp1736
s(I3045
I3038
tp1737
(I2905
I776
tp1738
s(I3049
I3008
tp1739
(I1765
I605
tp1740
s(I3042
I3027
tp1741
(I1081
I301
tp1742
s(I3038
I3052
tp1743
(I1906
I647
tp1744
s(I3056
I3006
tp1745
(I1376
I384
tp1746
s(I3081
I3030
tp1747
(I2880
I755
tp1748
s(I3037
I3029
tp1749
(I2885
I726
tp1750
s(I3030
I3054
tp1751
(I1956
I456
tp1752
s(I3031
I3075
tp1753
(I533
I155
tp1754
s(I3027
I3065
tp1755
(I2144
I592
tp1756
s(I3048
I3047
tp1757
(I4189
I1094
tp1758
s(I3054
I3031
tp1759
(I2100
I560
tp1760
s(I3077
I3069
tp1761
(I1724
I523
tp1762
s(I3074
I3056
tp1763
(I988
I227
tp1764
s(I3068
I3076
tp1765
(I2595
I628
tp1766
s(I3011
I3040
tp1767
(I2193
I653
tp1768
s(I3022
I3033
tp1769
(I2772
I743
tp1770
s(I3008
I3021
tp1771
(I3409
I957
tp1772
s(I3036
I3048
tp1773
(I537
I95
tp1774
s(I3057
I3064
tp1775
(I2310
I636
tp1776
s(I3033
I3067
tp1777
(I695
I189
tp1778
s(I3035
I3051
tp1779
(I881
I248
tp1780
s(I3021
I3008
tp1781
(I3236
I1068
tp1782
s(I3023
I3052
tp1783
(I2926
I874
tp1784
s(I3018
I3045
tp1785
(I2406
I678
tp1786
s(I3037
I3005
tp1787
(I3140
I865
tp1788
s(I3052
I3034
tp1789
(I1568
I423
tp1790
s(I3063
I3005
tp1791
(I842
I325
tp1792
s(I3066
I3049
tp1793
(I2502
I680
tp1794
s(I3005
I3063
tp1795
(I842
I301
tp1796
s(I3078
I3031
tp1797
(I2783
I722
tp1798
s(I3069
I3022
tp1799
(I2050
I475
tp1800
s(I3052
I3082
tp1801
(I3451
I1002
tp1802
s(I3068
I3080
tp1803
(I3503
I802
tp1804
s(I3062
I3038
tp1805
(I684
I196
tp1806
s(I3029
I3054
tp1807
(I2136
I535
tp1808
s(I3048
I3054
tp1809
(I701
I175
tp1810
s(I3024
I3051
tp1811
(I2131
I529
tp1812
s(I3049
I3027
tp1813
(I1509
I483
tp1814
s(I3008
I3007
tp1815
(I1513
I475
tp1816
s(I3054
I3038
tp1817
(I1754
I461
tp1818
s(I3040
I3022
tp1819
(I4309
I1181
tp1820
s(I3069
I3007
tp1821
(I834
I266
tp1822
s(I3074
I3019
tp1823
(I882
I248
tp1824
s(I3076
I3067
tp1825
(I744
I243
tp1826
s(I3011
I3049
tp1827
(I2263
I722
tp1828
s(I3022
I3075
tp1829
(I2820
I775
tp1830
s(I3036
I3047
tp1831
(I4288
I1057
tp1832
s(I3040
I3005
tp1833
(I1090
I307
tp1834
s(I3033
I3068
tp1835
(I1990
I712
tp1836
s(I3035
I3040
tp1837
(I1157
I381
tp1838
s(I3021
I3065
tp1839
(I2676
I610
tp1840
s(I3018
I3052
tp1841
(I1356
I559
tp1842
s(I3082
I3065
tp1843
(I2745
I622
tp1844
s(I3020
I3064
tp1845
(I2577
I737
tp1846
s(I3052
I3025
tp1847
(I2781
I698
tp1848
s(I3045
I3008
tp1849
(I2797
I839
tp1850
s(I3047
I3036
tp1851
(I4075
I1046
tp1852
s(I3066
I3056
tp1853
(I4438
I1144
tp1854
s(I3005
I3056
tp1855
(I1586
I344
tp1856
s(I3078
I3022
tp1857
(I2901
I661
tp1858
s(I3030
I3064
tp1859
(I1912
I576
tp1860
s(I3062
I3025
tp1861
(I3620
I960
tp1862
s(I3029
I3063
tp1863
(I1030
I360
tp1864
s(I3048
I3029
tp1865
(I1512
I496
tp1866
s(I3024
I3042
tp1867
(I1469
I380
tp1868
s(I3026
I3066
tp1869
(I1565
I391
tp1870
s(I3077
I3055
tp1871
(I677
I204
tp1872
s(I3074
I3010
tp1873
(I1607
I445
tp1874
s(I3076
I3042
tp1875
(I2299
I647
tp1876
s(I3014
I3057
tp1877
(I5047
I1376
tp1878
s(I3066
I3078
tp1879
(I625
I191
tp1880
s(I3045
I3080
tp1881
(I775
I206
tp1882
s(I3028
I3024
tp1883
(I370
I152
tp1884
s(I3008
I3035
tp1885
(I258
I68
tp1886
s(I3022
I3082
tp1887
(I437
I74
tp1888
s(I3035
I3065
tp1889
(I3314
I909
tp1890
s(I3060
I3047
tp1891
(I989
I310
tp1892
s(I3021
I3058
tp1893
(I1633
I297
tp1894
s(I3059
I3075
tp1895
(I693
I224
tp1896
s(I3023
I3058
tp1897
(I2404
I466
tp1898
s(I3036
I3079
tp1899
(I1411
I256
tp1900
s(I3052
I3016
tp1901
(I2939
I858
tp1902
s(I3047
I3029
tp1903
(I2606
I724
tp1904
s(I3066
I3067
tp1905
(I2590
I728
tp1906
s(I3042
I3068
tp1907
(I1541
I587
tp1908
s(I3059
I3023
tp1909
(I2495
I692
tp1910
s(I3079
I3078
tp1911
(I2174
I574
tp1912
s(I3069
I3008
tp1913
(I2006
I662
tp1914
s(I3030
I3059
tp1915
(I2365
I589
tp1916
s(I3016
I3059
tp1917
(I2280
I535
tp1918
s(I3029
I3082
tp1919
(I1273
I334
tp1920
s(I3029
I3056
tp1921
(I2815
I740
tp1922
s(I3048
I3036
tp1923
(I537
I92
tp1924
s(I3024
I3033
tp1925
(I2491
I611
tp1926
s(I3006
I3076
tp1927
(I1103
I306
tp1928
s(I3054
I3048
tp1929
(I701
I149
tp1930
s(I3077
I3048
tp1931
(I2055
I528
tp1932
s(I3040
I3036
tp1933
(I4113
I1100
tp1934
s(I3068
I3007
tp1935
(I519
I249
tp1936
s(I3055
I3025
tp1937
(I2439
I634
tp1938
s(I3076
I3049
tp1939
(I2649
I930
tp1940
s(I3014
I3048
tp1941
(I2757
I530
tp1942
s(I3011
I3031
tp1943
(I2045
I562
tp1944
s(I3008
I3026
tp1945
(I2437
I739
tp1946
s(I3019
I3005
tp1947
(I1569
I528
tp1948
s(I3020
I3077
tp1949
(I2415
I680
tp1950
s(I3038
I3057
tp1951
(I3205
I862
tp1952
s(I3055
I3005
tp1953
(I863
I286
tp1954
s(I3033
I3022
tp1955
(I2902
I752
tp1956
s(I3018
I3065
tp1957
(I3517
I1134
tp1958
s(I3075
I3056
tp1959
(I1278
I332
tp1960
s(I3021
I3051
tp1961
(I2044
I602
tp1962
s(I3059
I3080
tp1963
(I832
I200
tp1964
s(I3023
I3067
tp1965
(I1516
I455
tp1966
s(I3057
I3080
tp1967
(I2002
I579
tp1968
s(I3082
I3051
tp1969
(I2261
I663
tp1970
s(I3032
I3057
tp1971
(I2616
I633
tp1972
s(I3045
I3058
tp1973
(I3332
I797
tp1974
s(I3042
I3063
tp1975
(I1857
I562
tp1976
s(I3007
I3076
tp1977
(I1940
I583
tp1978
s(I3056
I3034
tp1979
(I923
I188
tp1980
s(I3081
I3058
tp1981
(I2429
I587
tp1982
s(I3069
I3033
tp1983
(I1425
I362
tp1984
s(I3016
I3066
tp1985
(I1461
I422
tp1986
s(I3029
I3065
tp1987
(I1745
I473
tp1988
s(I3048
I3011
tp1989
(I4396
I1163
tp1990
s(I3026
I3052
tp1991
(I2743
I751
tp1992
s(I3077
I3025
tp1993
(I2725
I748
tp1994
s(I3040
I3027
tp1995
(I2898
I876
tp1996
s(I3051
I3068
tp1997
(I1190
I454
tp1998
s(I3074
I3028
tp1999
(I2714
I935
tp2000
s(I3076
I3024
tp2001
(I2668
I948
tp2002
s(I3065
I3021
tp2003
(I2713
I589
tp2004
s(I3007
I3030
tp2005
(I2234
I647
tp2006
s(I3028
I3046
tp2007
(I824
I179
tp2008
s(I3006
I3027
tp2009
(I1612
I501
tp2010
s(I3036
I3020
tp2011
(I4628
I1170
tp2012
s(I3082
I3075
tp2013
(I2669
I775
tp2014
s(I3038
I3064
tp2015
(I1124
I415
tp2016
s(I3033
I3031
tp2017
(I656
I208
tp2018
s(I3035
I3063
tp2019
(I1087
I335
tp2020
s(I3075
I3065
tp2021
(I3033
I850
tp2022
s(I3065
I3006
tp2023
(I2834
I772
tp2024
s(I3023
I3008
tp2025
(I2913
I933
tp2026
s(I3020
I3045
tp2027
(I1215
I361
tp2028
s(I3034
I3077
tp2029
(I1744
I519
tp2030
s(I3032
I3064
tp2031
(I457
I134
tp2032
s(I3047
I3019
tp2033
(I659
I188
tp2034
s(I3056
I3025
tp2035
(I568
I150
tp2036
s(I3077
I3076
tp2037
(I544
I168
tp2038
s(I3081
I3067
tp2039
(I1905
I496
tp2040
s(I3069
I3026
tp2041
(I1987
I545
tp2042
s(I3027
I3076
tp2043
(I1336
I347
tp2044
s(I3024
I3031
tp2045
(I2003
I485
tp2046
s(I3026
I3047
tp2047
(I3801
I877
tp2048
s(I3019
I3034
tp2049
(I643
I249
tp2050
s(I3077
I3034
tp2051
(I1768
I513
tp2052
s(I3068
I3021
tp2053
(I2184
I499
tp2054
s(I3014
I3034
tp2055
(I3818
I1114
tp2056
s(I3065
I3030
tp2057
(I1182
I395
tp2058
s(I3006
I3034
tp2059
(I944
I280
tp2060
s(I3055
I3011
tp2061
(I2121
I557
tp2062
s(I3035
I3020
tp2063
(I2753
I714
tp2064
s(I3063
I3049
tp2065
(I1204
I475
tp2066
s(I3067
I3057
tp2067
(I3118
I800
tp2068
s(I3034
I3055
tp2069
(I1552
I482
tp2070
s(I3011
I3074
tp2071
(I1129
I273
tp2072
s(I3047
I3008
tp2073
(I985
I272
tp2074
s(I3069
I3051
tp2075
(I814
I197
tp2076
s(I3016
I3048
tp2077
(I1759
I402
tp2078
s(I3046
I3035
tp2079
(I1877
I484
tp2080
s(I3024
I3022
tp2081
(I2329
I548
tp2082
s(I3026
I3038
tp2083
(I2901
I804
tp2084
s(I3019
I3027
tp2085
(I2176
I645
tp2086
s(I3054
I3069
tp2087
(I2229
I644
tp2088
s(I3076
I3014
tp2089
(I2796
I823
tp2090
s(I3014
I3037
tp2091
(I3121
I632
tp2092
s(I3067
I3023
tp2093
(I1274
I336
tp2094
s(I3011
I3018
tp2095
(I1258
I335
tp2096
s(I3006
I3037
tp2097
(I2890
I736
tp2098
s(I3055
I3016
tp2099
(I1506
I414
tp2100
s(I3031
I3023
tp2101
(I1580
I439
tp2102
s(I3064
I3021
tp2103
(I2690
I826
tp2104
s(I3063
I3046
tp2105
(I746
I381
tp2106
s(I3064
I3008
tp2107
(I1528
I406
tp2108
s(I3060
I3067
tp2109
(I1662
I435
tp2110
s(I3023
I3030
tp2111
(I300
I149
tp2112
s(I3032
I3014
tp2113
(I2839
I847
tp2114
s(I3034
I3062
tp2115
(I2823
I830
tp2116
s(I3010
I3051
tp2117
(I1471
I473
tp2118
s(I3059
I3042
tp2119
(I2773
I758
tp2120
s(I3056
I3023
tp2121
(I3293
I932
tp2122
s(I3081
I3045
tp2123
(I1141
I220
tp2124
s(I3016
I3055
tp2125
(I1675
I438
tp2126
s(I3048
I3076
tp2127
(I2515
I669
tp2128
s(I3046
I3026
tp2129
(I1655
I416
tp2130
s(I3026
I3033
tp2131
(I3267
I861
tp2132
s(I3019
I3016
tp2133
(I2684
I737
tp2134
s(I3077
I3020
tp2135
(I2563
I703
tp2136
s(I3040
I3064
tp2137
(I1380
I375
tp2138
s(I3079
I3032
tp2139
(I3412
I923
tp2140
s(I3008
I3051
tp2141
(I1139
I316
tp2142
s(I3068
I3011
tp2143
(I2466
I706
tp2144
s(I3076
I3021
tp2145
(I2583
I739
tp2146
s(I3014
I3028
tp2147
(I1386
I561
tp2148
s(I3065
I3040
tp2149
(I4101
I1191
tp2150
s(I3007
I3021
tp2151
(I3097
I884
tp2152
s(I3025
I3056
tp2153
(I782
I302
tp2154
s(I3055
I3077
tp2155
(I685
I191
tp2156
s(I3036
I3033
tp2157
(I2962
I749
tp2158
s(I3018
I3081
tp2159
(I2285
I646
tp2160
s(I3080
I3076
tp2161
(I1102
I259
tp2162
s(I3035
I3034
tp2163
(I1244
I307
tp2164
s(I3075
I3052
tp2165
(I1660
I557
tp2166
s(I3060
I3010
tp2167
(I599
I134
tp2168
s(I3049
I3007
tp2169
(I1077
I422
tp2170
s(I3007
I3081
tp2171
(I3183
I836
tp2172
s(I3032
I3021
tp2173
(I2626
I764
tp2174
s(I3032
I3074
tp2175
(I801
I243
tp2176
s(I3034
I3057
tp2177
(I1260
I312
tp2178
s(I3010
I3042
tp2179
(I2937
I812
tp2180
s(I3027
I3008
tp2181
(I2110
I704
tp2182
s(I3037
I3058
tp2183
(I385
I101
tp2184
s(I3064
I3076
tp2185
(I1002
I313
tp2186
s(I3059
I3051
tp2187
(I1308
I418
tp2188
s(I3056
I3014
tp2189
(I4069
I1175
tp2190
s(I3058
I3030
tp2191
(I2629
I708
tp2192
s(I3081
I3054
tp2193
(I1995
I510
tp2194
s(I3037
I3082
tp2195
(I1848
I377
tp2196
s(I3046
I3029
tp2197
(I871
I246
tp2198
s(I3022
I3046
tp2199
(I1896
I542
tp2200
s(I3026
I3024
tp2201
(I791
I332
tp2202
s(I3051
I3032
tp2203
(I748
I251
tp2204
s(I3068
I3034
tp2205
(I1827
I557
tp2206
s(I3053
I3060
tp2207
(I908
I295
tp2208
s(I3014
I3023
tp2209
(I1111
I371
tp2210
s(I3065
I3049
tp2211
(I2071
I554
tp2212
s(I3007
I3018
tp2213
(I1015
I375
tp2214
s(I3067
I3037
tp2215
(I2377
I554
tp2216
s(I3028
I3066
tp2217
(I1512
I360
tp2218
s(I3006
I3023
tp2219
(I2093
I579
tp2220
s(I3055
I3074
tp2221
(I1244
I375
tp2222
s(I3036
I3024
tp2223
(I2896
I920
tp2224
s(I3038
I3028
tp2225
(I1761
I618
tp2226
s(I3055
I3038
tp2227
(I458
I152
tp2228
s(I3031
I3037
tp2229
(I2377
I596
tp2230
s(I3035
I3027
tp2231
(I2107
I651
tp2232
s(I3075
I3029
tp2233
(I1289
I376
tp2234
s(I3063
I3060
tp2235
(I2230
I670
tp2236
s(I3064
I3022
tp2237
(I3057
I894
tp2238
s(I3066
I3006
tp2239
(I3273
I878
tp2240
s(I3005
I3022
tp2241
(I3273
I922
tp2242
s(I3037
I3045
tp2243
(I3290
I724
tp2244
s(I3032
I3028
tp2245
(I1806
I623
tp2246
s(I3034
I3064
tp2247
(I1034
I304
tp2248
s(I3047
I3055
tp2249
(I1967
I531
tp2250
s(I3059
I3056
tp2251
(I1212
I385
tp2252
s(I3056
I3069
tp2253
(I2574
I720
tp2254
s(I3058
I3076
tp2255
(I2513
I620
tp2256
s(I3069
I3062
tp2257
(I1414
I345
tp2258
s(I3035
I3082
tp2259
(I3127
I887
tp2260
s(I3069
I3063
tp2261
(I667
I219
tp2262
s(I3062
I3078
tp2263
(I2493
I710
tp2264
s(I3022
I3049
tp2265
(I2599
I731
tp2266
s(I3026
I3019
tp2267
(I3684
I920
tp2268
s(I3019
I3014
tp2269
(I3433
I966
tp2270
s(I3040
I3062
tp2271
(I3256
I946
tp2272
s(I3079
I3022
tp2273
(I659
I110
tp2274
s(I3051
I3025
tp2275
(I2287
I572
tp2276
s(I3068
I3025
tp2277
(I2784
I786
tp2278
s(I3051
I3077
tp2279
(I913
I272
tp2280
s(I3065
I3058
tp2281
(I3524
I745
tp2282
s(I3067
I3026
tp2283
(I2876
I897
tp2284
s(I3006
I3062
tp2285
(I1970
I572
tp2286
s(I3018
I3029
tp2287
(I1773
I661
tp2288
s(I3055
I3047
tp2289
(I1913
I488
tp2290
s(I3016
I3079
tp2291
(I917
I185
tp2292
s(I3018
I3040
tp2293
(I1896
I710
tp2294
s(I3075
I3034
tp2295
(I890
I247
tp2296
s(I3063
I3021
tp2297
(I2138
I719
tp2298
s(I3064
I3029
tp2299
(I1392
I490
tp2300
s(I3049
I3065
tp2301
(I2221
I556
tp2302
s(I3042
I3078
tp2303
(I2334
I676
tp2304
s(I3019
I3080
tp2305
(I791
I238
tp2306
s(I3032
I3035
tp2307
(I778
I260
tp2308
s(I3034
I3011
tp2309
(I670
I187
tp2310
s(I3010
I3060
tp2311
(I556
I118
tp2312
s(I3027
I3022
tp2313
(I2064
I522
tp2314
s(I3062
I3054
tp2315
(I1593
I400
tp2316
s(I3023
I3028
tp2317
(I1272
I511
tp2318
s(I3023
I3078
tp2319
(I2055
I605
tp2320
s(I3056
I3060
tp2321
(I941
I320
tp2322
s(I3058
I3016
tp2323
(I2624
I650
tp2324
s(I3035
I3075
tp2325
(I1336
I374
tp2326
s(I3027
I3007
tp2327
(I943
I308
tp2328
s(I3066
I3082
tp2329
(I3032
I681
tp2330
s(I3037
I3081
tp2331
(I2355
I541
tp2332
s(I3051
I3030
tp2333
(I1408
I404
tp2334
s(I3068
I3048
tp2335
(I2681
I631
tp2336
s(I3065
I3067
tp2337
(I2151
I621
tp2338
s(I3007
I3064
tp2339
(I544
I234
tp2340
s(I3067
I3051
tp2341
(I712
I225
tp2342
s(I3006
I3065
tp2343
(I3103
I876
tp2344
s(I3025
I3035
tp2345
(I2278
I583
tp2346
s(I3018
I3036
tp2347
(I3241
I983
tp2348
s(I3038
I3014
tp2349
(I1798
I491
tp2350
s(I3055
I3052
tp2351
(I1433
I490
tp2352
s(I3031
I3027
tp2353
(I1098
I361
tp2354
s(I3030
I3074
tp2355
(I2505
I700
tp2356
s(I3075
I3011
tp2357
(I1492
I422
tp2358
s(I3063
I3018
tp2359
(I1097
I406
tp2360
s(I3064
I3036
tp2361
(I2861
I812
tp2362
s(I3049
I3042
tp2363
(I1766
I572
tp2364
s(I3066
I3008
tp2365
(I3987
I1206
tp2366
s(I3005
I3008
tp2367
(I557
I262
tp2368
s(I3037
I3063
tp2369
(I3168
I875
tp2370
s(I3030
I3016
tp2371
(I327
I91
tp2372
s(I3034
I3018
tp2373
(I452
I208
tp2374
s(I3027
I3031
tp2375
(I790
I194
tp2376
s(I3056
I3051
tp2377
(I1761
I481
tp2378
s(I3056
I3082
tp2379
(I3832
I1089
tp2380
s(I3022
I3067
tp2381
(I2242
I582
tp2382
s(I3026
I3005
tp2383
(I2173
I549
tp2384
s(I3019
I3060
tp2385
(I627
I181
tp2386
s(I3057
I3034
tp2387
(I1179
I327
tp2388
s(I3051
I3023
tp2389
(I1708
I482
tp2390
s(I3068
I3047
tp2391
(I2259
I637
tp2392
s(I3065
I3068
tp2393
(I1897
I680
tp2394
s(I3067
I3040
tp2395
(I2457
I782
tp2396
s(I3026
I3075
tp2397
(I3316
I892
tp2398
s(I3006
I3040
tp2399
(I1674
I529
tp2400
s(I3080
I3020
tp2401
(I1721
I516
tp2402
s(I3036
I3005
tp2403
(I3237
I873
tp2404
s(I3082
I3024
tp2405
(I1974
I741
tp2406
s(I3031
I3048
tp2407
(I2169
I559
tp2408
s(I3030
I3077
tp2409
(I1839
I472
tp2410
s(I3052
I3064
tp2411
(I915
I265
tp2412
s(I3075
I3016
tp2413
(I2050
I566
tp2414
s(I3063
I3011
tp2415
(I2175
I619
tp2416
s(I3049
I3051
tp2417
(I1797
I461
tp2418
s(I3066
I3019
tp2419
(I3834
I1053
tp2420
s(I3042
I3020
tp2421
(I4069
I1083
tp2422
s(I3005
I3033
tp2423
(I1295
I394
tp2424
s(I3030
I3011
tp2425
(I3381
I880
tp2426
s(I3034
I3029
tp2427
(I2210
I661
tp2428
s(I3010
I3014
tp2429
(I3434
I988
tp2430
s(I3027
I3036
tp2431
(I2257
I509
tp2432
s(I3062
I3064
tp2433
(I1832
I579
tp2434
s(I3029
I3008
tp2435
(I2364
I802
tp2436
s(I3042
I3007
tp2437
(I2024
I609
tp2438
s(I3069
I3082
tp2439
(I1705
I439
tp2440
s(I3021
I3076
tp2441
(I2056
I585
tp2442
s(I3056
I3042
tp2443
(I3572
I999
tp2444
s(I3058
I3066
tp2445
(I3944
I900
tp2446
s(I3031
I3035
tp2447
(I1118
I331
tp2448
s(I3010
I3077
tp2449
(I731
I192
tp2450
s(I3022
I3010
tp2451
(I2746
I703
tp2452
s(I3008
I3042
tp2453
(I3125
I864
tp2454
s(I3057
I3027
tp2455
(I3481
I1017
tp2456
s(I3014
I3079
tp2457
(I1409
I309
tp2458
s(I3053
I3032
tp2459
(I1626
I488
tp2460
s(I3007
I3054
tp2461
(I2895
I792
tp2462
s(I3067
I3065
tp2463
(I2283
I633
tp2464
s(I3063
I3080
tp2465
(I2286
I706
tp2466
s(I3060
I3006
tp2467
(I1656
I468
tp2468
s(I3021
I3035
tp2469
(I3034
I889
tp2470
s(I3006
I3051
tp2471
(I385
I98
tp2472
s(I3025
I3029
tp2473
(I3031
I856
tp2474
s(I3080
I3059
tp2475
(I596
I131
tp2476
s(I3018
I3022
tp2477
(I3438
I1064
tp2478
s(I3082
I3035
tp2479
(I3250
I950
tp2480
s(I3020
I3038
tp2481
(I2659
I771
tp2482
s(I3055
I3058
tp2483
(I2436
I573
tp2484
s(I3052
I3063
tp2485
(I1412
I450
tp2486
s(I3028
I3076
tp2487
(I2569
I634
tp2488
s(I3063
I3032
tp2489
(I518
I265
tp2490
s(I3049
I3052
tp2491
(I1778
I544
tp2492
s(I3066
I3026
tp2493
(I1563
I488
tp2494
s(I3005
I3078
tp2495
(I3050
I912
tp2496
s(I3005
I3026
tp2497
(I2186
I717
tp2498
s(I3078
I3048
tp2499
(I3414
I877
tp2500
s(I3030
I3034
tp2501
(I2763
I764
tp2502
s(I3034
I3036
tp2503
(I3679
I983
tp2504
s(I3062
I3059
tp2505
(I1918
I517
tp2506
s(I3046
I3057
tp2507
(I3467
I838
tp2508
s(I3033
I3082
tp2509
(I2510
I682
tp2510
s(I3046
I3048
tp2511
(I2195
I544
tp2512
s(I3008
I3065
tp2513
(I3572
I977
tp2514
s(I3025
I3005
tp2515
(I2419
I675
tp2516
s(I3019
I3042
tp2517
(I2936
I790
tp2518
s(I3049
I3054
tp2519
(I3110
I789
tp2520
s(I3033
I3047
tp2521
(I1326
I326
tp2522
s(I3021
I3028
tp2523
(I2089
I746
tp2524
s(I3020
I3029
tp2525
(I2946
I843
tp2526
s(I3055
I3067
tp2527
(I204
I64
tp2528
s(I3052
I3054
tp2529
(I3273
I910
tp2530
s(I3028
I3075
tp2531
(I2560
I638
tp2532
s(I3063
I3025
tp2533
(I2493
I698
tp2534
s(I3064
I3057
tp2535
(I2159
I499
tp2536
s(I3049
I3029
tp2537
(I1574
I440
tp2538
s(I3066
I3037
tp2539
(I3921
I869
tp2540
s(I3042
I3038
tp2541
(I1337
I345
tp2542
s(I3005
I3051
tp2543
(I635
I213
tp2544
s(I3030
I3037
tp2545
(I2851
I589
tp2546
s(I3065
I3082
tp2547
(I2207
I614
tp2548
s(I3010
I3032
tp2549
(I2025
I682
tp2550
s(I3062
I3018
tp2551
(I2300
I692
tp2552
s(I3029
I3026
tp2553
(I2337
I737
tp2554
s(I3048
I3066
tp2555
(I3533
I780
tp2556
s(I3010
I3063
tp2557
(I1940
I647
tp2558
s(I3058
I3052
tp2559
(I3625
I1032
tp2560
s(I3047
I3079
tp2561
(I4270
I1102
tp2562
s(I3028
I3005
tp2563
(I1765
I435
tp2564
s(I3008
I3056
tp2565
(I1386
I366
tp2566
s(I3030
I3029
tp2567
(I969
I284
tp2568
s(I3033
I3048
tp2569
(I2561
I645
tp2570
s(I3074
I3076
tp2571
(I915
I306
tp2572
s(I3031
I3076
tp2573
(I590
I166
tp2574
s(I3024
I3076
tp2575
(I2549
I639
tp2576
s(I3018
I3056
tp2577
(I856
I223
tp2578
s(I3031
I3063
tp2579
(I791
I257
tp2580
s(I3028
I3082
tp2581
(I2004
I506
tp2582
s(I3049
I3038
tp2583
(I1922
I534
tp2584
s(I3042
I3033
tp2585
(I2359
I620
tp2586
s(I3078
I3034
tp2587
(I4186
I1127
tp2588
s(I3037
I3035
tp2589
(I3494
I948
tp2590
s(I3032
I3006
tp2591
(I1020
I326
tp2592
s(I3016
I3032
tp2593
(I2495
I709
tp2594
s(I3027
I3059
tp2595
(I1795
I424
tp2596
s(I3062
I3021
tp2597
(I1261
I306
tp2598
s(I3029
I3035
tp2599
(I2162
I623
tp2600
s(I3059
I3034
tp2601
(I823
I301
tp2602
s(I3054
I3021
tp2603
(I1353
I295
tp2604
s(I3077
I3059
tp2605
(I945
I212
tp2606
s(I3058
I3047
tp2607
(I4106
I1030
tp2608
s(I3074
I3062
tp2609
(I2512
I748
tp2610
s(I3076
I3062
tp2611
(I1613
I546
tp2612
s(I3011
I3066
tp2613
(I4647
I1249
tp2614
s(I3022
I3031
tp2615
(I2284
I618
tp2616
s(I3008
I3074
tp2617
(I430
I162
tp2618
s(I3008
I3063
tp2619
(I1346
I404
tp2620
s(I3057
I3014
tp2621
(I4737
I1338
tp2622
s(I3021
I3014
tp2623
(I2147
I460
tp2624
s(I3023
I3046
tp2625
(I834
I300
tp2626
s(I3080
I3048
tp2627
(I2884
I727
tp2628
s(I3018
I3067
tp2629
(I1231
I501
tp2630
s(I3020
I3019
tp2631
(I1047
I314
tp2632
s(I3026
I3048
tp2633
(I3411
I889
tp2634
s(I3010
I3056
tp2635
(I1375
I440
tp2636
s(I3052
I3036
tp2637
(I3647
I990
tp2638
s(I3066
I3055
tp2639
(I2722
I720
tp2640
s(I3042
I3024
tp2641
(I1459
I582
tp2642
s(I3005
I3069
tp2643
(I1448
I451
tp2644
s(I3056
I3007
tp2645
(I2134
I643
tp2646
s(I3054
I3076
tp2647
(I2321
I599
tp2648
s(I3037
I3028
tp2649
(I3559
I1072
tp2650
s(I3030
I3055
tp2651
(I1416
I383
tp2652
s(I3031
I3074
tp2653
(I1144
I336
tp2654
s(I3027
I3064
tp2655
(I1342
I410
tp2656
s(I3007
I3082
tp2657
(I3073
I881
tp2658
s(I3077
I3068
tp2659
(I2110
I748
tp2660
s(I3074
I3057
tp2661
(I1570
I385
tp2662
s(I3076
I3069
tp2663
(I1653
I543
tp2664
s(I3007
I3005
tp2665
(I641
I211
tp2666
s(I3045
I3077
tp2667
(I1516
I366
tp2668
s(I3028
I3011
tp2669
(I3183
I737
tp2670
s(I3022
I3038
tp2671
(I1688
I452
tp2672
s(I3008
I3022
tp2673
(I3777
I1024
tp2674
s(I3036
I3049
tp2675
(I3089
I831
tp2676
s(I3033
I3066
tp2677
(I3243
I884
tp2678
s(I3076
I3036
tp2679
(I2566
I615
tp2680
s(I3023
I3055
tp2681
(I1648
I447
tp2682
s(I3018
I3042
tp2683
(I2786
I904
tp2684
s(I3052
I3035
tp2685
(I979
I281
tp2686
s(I3045
I3014
tp2687
(I4703
I1267
tp2688
s(I3049
I3016
tp2689
(I1514
I519
tp2690
s(I3066
I3062
tp2691
(I2356
I627
tp2692
s(I3042
I3051
tp2693
(I1999
I539
tp2694
s(I3005
I3062
tp2695
(I2220
I687
tp2696
s(I3078
I3028
tp2697
(I1225
I423
tp2698
s(I3081
I3038
tp2699
(I2159
I584
tp2700
s(I3069
I3021
tp2701
(I1859
I437
tp2702
s(I3030
I3046
tp2703
(I602
I236
tp2704
s(I3016
I3014
tp2705
(I820
I288
tp2706
s(I3029
I3079
tp2707
(I1664
I378
tp2708
s(I3029
I3053
tp2709
(I2777
I754
tp2710
s(I3048
I3055
tp2711
(I2195
I589
tp2712
s(I3024
I3052
tp2713
(I1986
I525
tp2714
s(I3079
I3082
tp2715
(I1096
I183
tp2716
s(I3040
I3023
tp2717
(I3379
I954
tp2718
s(I3069
I3006
tp2719
(I1292
I330
tp2720
s(I3011
I3048
tp2721
(I4213
I1121
tp2722
s(I3028
I3018
tp2723
(I2105
I525
tp2724
s(I3036
I3040
tp2725
(I4347
I1227
tp2726
s(I3040
I3006
tp2727
(I1943
I536
tp2728
s(I3057
I3056
tp2729
(I1029
I295
tp2730
s(I3033
I3011
tp2731
(I1533
I395
tp2732
s(I3021
I3064
tp2733
(I2468
I775
tp2734
s(I3018
I3053
tp2735
(I528
I174
tp2736
s(I3082
I3046
tp2737
(I1744
I540
tp2738
s(I3052
I3026
tp2739
(I2503
I784
tp2740
s(I3045
I3023
tp2741
(I2929
I748
tp2742
s(I3066
I3057
tp2743
(I5299
I1362
tp2744
s(I3078
I3023
tp2745
(I1970
I549
tp2746
s(I3069
I3014
tp2747
(I1688
I481
tp2748
s(I3052
I3074
tp2749
(I1258
I349
tp2750
s(I3030
I3065
tp2751
(I1310
I374
tp2752
s(I3016
I3021
tp2753
(I1262
I271
tp2754
s(I3062
I3030
tp2755
(I671
I167
tp2756
s(I3029
I3062
tp2757
(I928
I236
tp2758
s(I3048
I3030
tp2759
(I1635
I462
tp2760
s(I3006
I3074
tp2761
(I630
I229
tp2762
s(I3026
I3067
tp2763
(I2703
I767
tp2764
s(I3054
I3046
tp2765
(I2518
I720
tp2766
s(I3077
I3054
tp2767
(I1798
I437
tp2768
s(I3040
I3014
tp2769
(I4004
I1042
tp2770
s(I3074
I3011
tp2771
(I912
I249
tp2772
s(I3014
I3062
tp2773
(I1612
I475
tp2774
s(I3011
I3025
tp2775
(I1207
I293
tp2776
s(I3028
I3025
tp2777
(I3501
I816
tp2778
s(I3008
I3036
tp2779
(I3581
I943
tp2780
s(I3057
I3049
tp2781
(I2947
I936
tp2782
s(I3035
I3064
tp2783
(I590
I150
tp2784
s(I3059
I3074
tp2785
(I1065
I371
tp2786
s(I3023
I3069
tp2787
(I916
I268
tp2788
s(I3032
I3051
tp2789
(I748
I263
tp2790
s(I3045
I3016
tp2791
(I3244
I817
tp2792
s(I3062
I3006
tp2793
(I1887
I544
tp2794
s(I3066
I3064
tp2795
(I3218
I913
tp2796
s(I3042
I3069
tp2797
(I1194
I340
tp2798
s(I3078
I3014
tp2799
(I1410
I338
tp2800
s(I3081
I3016
tp2801
(I2873
I779
tp2802
s(I3030
I3056
tp2803
(I3131
I807
tp2804
s(I3016
I3060
tp2805
(I2673
I597
tp2806
s(I3048
I3037
tp2807
(I1112
I233
tp2808
s(I3024
I3034
tp2809
(I2360
I547
tp2810
s(I3006
I3077
tp2811
(I1298
I370
tp2812
s(I3026
I3058
tp2813
(I4106
I902
tp2814
s(I3054
I3049
tp2815
(I3221
I910
tp2816
s(I3077
I3031
tp2817
(I776
I243
tp2818
s(I3040
I3037
tp2819
(I4176
I1111
tp2820
s(I3079
I3063
tp2821
(I2521
I696
tp2822
s(I3074
I3034
tp2823
(I310
I73
tp2824
s(I3014
I3049
tp2825
(I2380
I701
tp2826
s(I3065
I3019
tp2827
(I3394
I947
tp2828
s(I3011
I3030
tp2829
(I3324
I923
tp2830
s(I3028
I3032
tp2831
(I1526
I381
tp2832
s(I3008
I3027
tp2833
(I2366
I719
tp2834
s(I3036
I3062
tp2835
(I1494
I356
tp2836
s(I3038
I3062
tp2837
(I900
I241
tp2838
s(I3057
I3042
tp2839
(I4240
I1162
tp2840
s(I3033
I3021
tp2841
(I2534
I685
tp2842
s(I3035
I3057
tp2843
(I2273
I562
tp2844
s(I3075
I3059
tp2845
(I763
I179
tp2846
s(I3060
I3055
tp2847
(I1523
I415
tp2848
s(I3023
I3066
tp2849
(I1805
I498
tp2850
s(I3082
I3048
tp2851
(I1180
I231
tp2852
s(I3020
I3055
tp2853
(I2266
I664
tp2854
s(I3032
I3058
tp2855
(I3020
I779
tp2856
s(I3052
I3008
tp2857
(I1108
I268
tp2858
s(I3047
I3021
tp2859
(I3903
I1060
tp2860
s(I3042
I3060
tp2861
(I2914
I718
tp2862
s(I3056
I3035
tp2863
(I1868
I471
tp2864
s(I3069
I3032
tp2865
(I1562
I447
tp2866
s(I3016
I3067
tp2867
(I1640
I396
tp2868
s(I3051
I3005
tp2869
(I635
I203
tp2870
s(I3029
I3064
tp2871
(I1596
I509
tp2872
s(I3059
I3007
tp2873
(I1943
I664
tp2874
s(I3026
I3053
tp2875
(I3430
I825
tp2876
s(I3040
I3028
tp2877
(I2593
I821
tp2878
s(I3074
I3029
tp2879
(I1900
I579
tp2880
s(I3076
I3025
tp2881
(I2239
I612
tp2882
s(I3014
I3040
tp2883
(I4288
I1311
tp2884
s(I3065
I3020
tp2885
(I4425
I1178
tp2886
s(I3007
I3025
tp2887
(I2411
I666
tp2888
s(I3028
I3047
tp2889
(I2975
I668
tp2890
s(I3006
I3024
tp2891
(I1756
I599
tp2892
s(I3036
I3021
tp2893
(I1206
I213
tp2894
s(I3038
I3065
tp2895
(I2032
I545
tp2896
s(I3033
I3030
tp2897
(I1671
I448
tp2898
s(I3035
I3062
tp2899
(I2466
I722
tp2900
s(I3075
I3064
tp2901
(I1129
I353
tp2902
s(I3065
I3005
tp2903
(I2990
I837
tp2904
s(I3060
I3062
tp2905
(I2170
I659
tp2906
s(I3023
I3011
tp2907
(I3614
I943
tp2908
s(I3020
I3046
tp2909
(I3248
I939
tp2910
s(I3034
I3074
tp2911
(I310
I82
tp2912
s(I3032
I3065
tp2913
(I3073
I901
tp2914
s(I3047
I3018
tp2915
(I894
I309
tp2916
s(I3077
I3075
tp2917
(I841
I281
tp2918
s(I3069
I3025
tp2919
(I3101
I769
tp2920
s(I3016
I3042
tp2921
(I594
I141
tp2922
s(I3024
I3016
tp2923
(I1217
I327
tp2924
s(I3054
I3067
tp2925
(I2140
I539
tp2926
s(I3077
I3033
tp2927
(I793
I247
tp2928
s(I3040
I3051
tp2929
(I1671
I472
tp2930
s(I3051
I3060
tp2931
(I1569
I347
tp2932
s(I3068
I3022
tp2933
(I2375
I538
tp2934
s(I3076
I3032
tp2935
(I1581
I558
tp2936
s(I3014
I3035
tp2937
(I3532
I1041
tp2938
s(I3065
I3029
tp2939
(I1836
I515
tp2940
s(I3007
I3038
tp2941
(I1513
I476
tp2942
s(I3028
I3054
tp2943
(I2866
I685
tp2944
s(I3006
I3035
tp2945
(I608
I225
tp2946
s(I3018
I3006
tp2947
(I500
I290
tp2948
s(I3018
I3076
tp2949
(I788
I388
tp2950
s(I3035
I3023
tp2951
(I2588
I730
tp2952
s(I3064
I3020
tp2953
(I2163
I563
tp2954
s(I3063
I3048
tp2955
(I2165
I682
tp2956
s(I3024
I3019
tp2957
(I2777
I687
tp2958
s(I3060
I3069
tp2959
(I2570
I735
tp2960
s(I3023
I3016
tp2961
(I315
I69
tp2962
s(I3032
I3008
tp2963
(I925
I461
tp2964
s(I3034
I3052
tp2965
(I1562
I514
tp2966
s(I3047
I3011
tp2967
(I207
I69
tp2968
s(I3025
I3077
tp2969
(I2499
I693
tp2970
s(I3016
I3049
tp2971
(I1528
I444
tp2972
s(I3046
I3032
tp2973
(I1203
I366
tp2974
s(I3024
I3023
tp2975
(I1191
I314
tp2976
s(I3019
I3026
tp2977
(I3701
I1170
tp2978
s(I3077
I3010
tp2979
(I782
I158
tp2980
s(I3040
I3042
tp2981
(I3657
I1021
tp2982
s(I3079
I3042
tp2983
(I691
I172
tp2984
s(I3051
I3053
tp2985
(I1390
I373
tp2986
s(I3014
I3026
tp2987
(I1440
I509
tp2988
s(I3065
I3038
tp2989
(I2349
I659
tp2990
s(I3067
I3022
tp2991
(I2204
I563
tp2992
s(I3011
I3021
tp2993
(I4187
I1161
tp2994
s(I3006
I3010
tp2995
(I1795
I446
tp2996
s(I3036
I3011
tp2997
(I4495
I1126
tp2998
s(I3038
I3051
tp2999
(I701
I240
tp3000
s(I3031
I3022
tp3001
(I2510
I666
tp3002
s(I3068
I3082
tp3003
(I2030
I501
tp3004
s(I3075
I3046
tp3005
(I1549
I469
tp3006
s(I3067
I3007
tp3007
(I932
I354
tp3008
s(I3031
I3007
tp3009
(I958
I329
tp3010
s(I3034
I3063
tp3011
(I1530
I477
tp3012
s(I3011
I3082
tp3013
(I4163
I1158
tp3014
s(I3047
I3064
tp3015
(I1476
I405
tp3016
s(I3064
I3075
tp3017
(I746
I223
tp3018
s(I3059
I3045
tp3019
(I1437
I370
tp3020
s(I3056
I3008
tp3021
(I1610
I402
tp3022
s(I3058
I3036
tp3023
(I669
I164
tp3024
s(I3048
I3077
tp3025
(I2318
I571
tp3026
s(I3046
I3027
tp3027
(I856
I214
tp3028
s(I3024
I3014
tp3029
(I1741
I439
tp3030
s(I3026
I3030
tp3031
(I1734
I541
tp3032
s(I3040
I3065
tp3033
(I3835
I1003
tp3034
s(I3079
I3035
tp3035
(I3653
I960
tp3036
s(I3051
I3042
tp3037
(I1986
I548
tp3038
s(I3074
I3006
tp3039
(I628
I208
tp3040
s(I3076
I3022
tp3041
(I2951
I807
tp3042
s(I3014
I3029
tp3043
(I1962
I603
tp3044
s(I3065
I3047
tp3045
(I4041
I1041
tp3046
s(I3028
I3068
tp3047
(I978
I239
tp3048
s(I3025
I3063
tp3049
(I2448
I687
tp3050
s(I3055
I3076
tp3051
(I645
I190
tp3052
s(I3036
I3034
tp3053
(I3857
I1023
tp3054
s(I3038
I3026
tp3055
(I2625
I809
tp3056
s(I3080
I3077
tp3057
(I918
I215
tp3058
s(I3035
I3037
tp3059
(I3386
I886
tp3060
s(I3075
I3055
tp3061
(I609
I197
tp3062
s(I3064
I3016
tp3063
(I2154
I680
tp3064
s(I3060
I3011
tp3065
(I1196
I378
tp3066
s(I3038
I3047
tp3067
(I2387
I648
tp3068
s(I3023
I3038
tp3069
(I1059
I273
tp3070
s(I3037
I3051
tp3071
(I2505
I662
tp3072
s(I3032
I3022
tp3073
(I2994
I831
tp3074
s(I3032
I3075
tp3075
(I1203
I358
tp3076
s(I3027
I3011
tp3077
(I2811
I714
tp3078
s(I3047
I3057
tp3079
(I818
I215
tp3080
s(I3058
I3082
tp3081
(I1897
I382
tp3082
s(I3058
I3031
tp3083
(I2292
I581
tp3084
s(I3075
I3074
tp3085
(I748
I203
tp3086
s(I3075
I3078
tp3087
(I3546
I1018
tp3088
s(I3014
I3005
tp3089
(I3178
I957
tp3090
s(I3024
I3005
tp3091
(I1416
I323
tp3092
s(I3019
I3008
tp3093
(I1262
I452
tp3094
s(I3040
I3056
tp3095
(I2679
I657
tp3096
s(I3079
I3024
tp3097
(I2124
I715
tp3098
s(I3051
I3035
tp3099
(I989
I287
tp3100
s(I3068
I3035
tp3101
(I1491
I499
tp3102
s(I3014
I3020
tp3103
(I4613
I1298
tp3104
s(I3065
I3048
tp3105
(I2859
I744
tp3106
s(I3067
I3036
tp3107
(I2008
I482
tp3108
s(I3028
I3067
tp3109
(I1947
I513
tp3110
s(I3006
I3020
tp3111
(I2197
I641
tp3112
s(I3038
I3029
tp3113
(I287
I72
tp3114
s(I3055
I3033
tp3115
(I588
I162
tp3116
s(I3031
I3036
tp3117
(I2313
I585
tp3118
s(I3035
I3026
tp3119
(I2179
I671
tp3120
s(I3075
I3028
tp3121
(I2763
I922
tp3122
s(I3064
I3023
tp3123
(I2127
I667
tp3124
s(I3049
I3063
tp3125
(I1449
I412
tp3126
s(I3066
I3007
tp3127
(I2819
I810
tp3128
s(I3060
I3018
tp3129
(I1646
I577
tp3130
s(I3005
I3021
tp3131
(I2905
I854
tp3132
s(I3032
I3029
tp3133
(I1329
I428
tp3134
s(I3032
I3082
tp3135
(I2602
I762
tp3136
s(I3034
I3065
tp3137
(I3955
I1134
tp3138
s(I3027
I3016
tp3139
(I1160
I309
tp3140
s(I3005
I3007
tp3141
(I1008
I372
tp3142
s(I3058
I3077
tp3143
(I2062
I455
tp3144
s(I3058
I3022
tp3145
(I1460
I309
tp3146
s(I3062
I3079
tp3147
(I1650
I352
tp3148
s(I3046
I3021
tp3149
(I1781
I432
tp3150
s(I3022
I3054
tp3151
(I1435
I293
tp3152
s(I3080
I3031
tp3153
(I1775
I505
tp3154
s(I3026
I3016
tp3155
(I1609
I485
tp3156
s(I3040
I3063
tp3157
(I1606
I464
tp3158
s(I3051
I3024
tp3159
(I2356
I850
tp3160
s(I3068
I3026
tp3161
(I1533
I396
tp3162
s(I3051
I3076
tp3163
(I718
I209
tp3164
s(I3007
I3058
tp3165
(I3491
I899
tp3166
s(I3067
I3029
tp3167
(I539
I160
tp3168
s(I3006
I3063
tp3169
(I592
I187
tp3170
s(I3055
I3082
tp3171
(I2018
I558
tp3172
s(I3018
I3026
tp3173
(I2918
I997
tp3174
s(I3038
I3036
tp3175
(I2146
I460
tp3176
s(I3055
I3046
tp3177
(I1322
I401
tp3178
s(I3031
I3029
tp3179
(I845
I263
tp3180
s(I3051
I3081
tp3181
(I1961
I461
tp3182
s(I3075
I3037
tp3183
(I2821
I708
tp3184
s(I3063
I3020
tp3185
(I2789
I829
tp3186
s(I3064
I3030
tp3187
(I1827
I589
tp3188
s(I3049
I3064
tp3189
(I1495
I386
tp3190
s(I3066
I3014
tp3191
(I1103
I283
tp3192
s(I3060
I3025
tp3193
(I1423
I439
tp3194
s(I3042
I3079
tp3195
(I704
I193
tp3196
s(I3082
I3006
tp3197
(I2739
I801
tp3198
s(I3037
I3069
tp3199
(I2670
I716
tp3200
s(I3032
I3036
tp3201
(I2797
I752
tp3202
s(I3034
I3008
tp3203
(I687
I215
tp3204
s(I3027
I3025
tp3205
(I3130
I791
tp3206
s(I3062
I3055
tp3207
(I1100
I308
tp3208
s(I3014
I3008
tp3209
(I3735
I1220
tp3210
s(I3059
I3064
tp3211
(I1787
I578
tp3212
s(I3035
I3074
tp3213
(I934
I234
tp3214
s(I3027
I3006
tp3215
(I1397
I376
tp3216
s(I3022
I3057
tp3217
(I4916
I1284
tp3218
s(I3026
I3011
tp3219
(I3461
I859
tp3220
s(I3079
I3014
tp3221
(I1394
I325
tp3222
s(I3014
I3082
tp3223
(I2231
I445
tp3224
s(I3068
I3049
tp3225
(I1349
I352
tp3226
s(I3065
I3066
tp3227
(I556
I114
tp3228
s(I3007
I3067
tp3229
(I1654
I520
tp3230
s(I3025
I3034
tp3231
(I1494
I417
tp3232
s(I3080
I3014
tp3233
(I3866
I1065
tp3234
s(I3018
I3037
tp3235
(I3305
I992
tp3236
s(I3082
I3030
tp3237
(I1112
I337
tp3238
s(I3031
I3026
tp3239
(I2896
I889
tp3240
s(I3030
I3075
tp3241
(I1896
I516
tp3242
s(I3075
I3010
tp3243
(I996
I242
tp3244
s(I3064
I3037
tp3245
(I2924
I824
tp3246
s(I3007
I3079
tp3247
(I3464
I925
tp3248
s(I3067
I3063
tp3249
(I765
I307
tp3250
s(I3037
I3062
tp3251
(I2067
I507
tp3252
s(I3016
I3005
tp3253
(I2382
I661
tp3254
s(I3027
I3030
tp3255
(I834
I218
tp3256
s(I3062
I3046
tp3257
(I892
I286
tp3258
s(I3029
I3014
tp3259
(I1510
I419
tp3260
s(I3056
I3052
tp3261
(I2485
I702
tp3262
s(I3058
I3008
tp3263
(I3612
I1091
tp3264
s(I3016
I3077
tp3265
(I1854
I471
tp3266
s(I3075
I3068
tp3267
(I1644
I605
tp3268
s(I3022
I3064
tp3269
(I2835
I834
tp3270
s(I3008
I3052
tp3271
(I875
I299
tp3272
s(I3019
I3063
tp3273
(I1597
I540
tp3274
s(I3051
I3022
tp3275
(I2638
I708
tp3276
s(I3068
I3040
tp3277
(I2500
I654
tp3278
s(I3053
I3038
tp3279
(I1890
I570
tp3280
s(I3049
I3078
tp3281
(I1950
I513
tp3282
s(I3036
I3006
tp3283
(I3080
I802
tp3284
s(I3082
I3025
tp3285
(I4472
I1216
tp3286
s(I3038
I3022
tp3287
(I1952
I475
tp3288
s(I3055
I3060
tp3289
(I1497
I329
tp3290
s(I3031
I3051
tp3291
(I128
I44
tp3292
s(I3075
I3019
tp3293
(I654
I193
tp3294
s(I3063
I3010
tp3295
(I2070
I671
tp3296
s(I3066
I3016
tp3297
(I1496
I446
tp3298
s(I3042
I3021
tp3299
(I669
I130
tp3300
s(I3005
I3032
tp3301
(I607
I232
tp3302
s(I3037
I3023
tp3303
(I2287
I561
tp3304
s(I3030
I3008
tp3305
(I2680
I869
tp3306
s(I3034
I3026
tp3307
(I3124
I954
tp3308
s(I3062
I3065
tp3309
(I1981
I541
tp3310
s(I3029
I3023
tp3311
(I735
I177
tp3312
s(I3059
I3014
tp3313
(I3270
I934
tp3314
s(I3021
I3075
tp3315
(I2452
I715
tp3316
s(I3058
I3067
tp3317
(I2331
I560
tp3318
s(I3056
I3074
tp3319
(I1233
I270
tp3320
s(I3010
I3074
tp3321
(I1228
I425
tp3322
s(I3022
I3011
tp3323
(I4305
I1138
tp3324
s(I3019
I3052
tp3325
(I2139
I732
tp3326
s(I3057
I3026
tp3327
(I3899
I1157
tp3328
s(I3014
I3076
tp3329
(I2617
I754
tp3330
s(I3007
I3049
tp3331
(I1001
I348
tp3332
s(I3067
I3064
tp3333
(I1331
I456
tp3334
s(I3021
I3034
tp3335
(I3319
I963
tp3336
s(I3006
I3048
tp3337
(I2682
I699
tp3338
s(I3080
I3060
tp3339
(I390
I92
tp3340
s(I3018
I3023
tp3341
(I2508
I838
tp3342
s(I3082
I3032
tp3343
(I3009
I914
tp3344
s(I3055
I3069
tp3345
(I992
I278
tp3346
s(I3031
I3040
tp3347
(I1873
I602
tp3348
s(I3052
I3056
tp3349
(I2213
I547
tp3350
s(I3063
I3035
tp3351
(I1200
I412
tp3352
s(I3064
I3051
tp3353
(I419
I185
tp3354
s(I3047
I3005
tp3355
(I1543
I423
tp3356
s(I3066
I3027
tp3357
(I1876
I502
tp3358
s(I3005
I3077
tp3359
(I1547
I485
tp3360
s(I3069
I3075
tp3361
(I1219
I309
tp3362
s(I3005
I3025
tp3363
(I2154
I494
tp3364
s(I3078
I3049
tp3365
(I2218
I562
tp3366
s(I3030
I3035
tp3367
(I2478
I690
tp3368
s(I3034
I3037
tp3369
(I3829
I1039
tp3370
s(I3010
I3038
tp3371
(I1636
I497
tp3372
s(I3062
I3056
tp3373
(I3051
I809
tp3374
s(I3029
I3016
tp3375
(I761
I190
tp3376
s(I3064
I3082
tp3377
(I2665
I824
tp3378
s(I3068
I3069
tp3379
(I1115
I239
tp3380
s(I3010
I3062
tp3381
(I1782
I587
tp3382
s(I3074
I3045
tp3383
(I2563
I735
tp3384
s(I3028
I3056
tp3385
(I2933
I666
tp3386
s(I3047
I3081
tp3387
(I1843
I507
tp3388
s(I3046
I3049
tp3389
(I703
I189
tp3390
s(I3022
I3018
tp3391
(I3304
I948
tp3392
s(I3008
I3066
tp3393
(I3870
I1045
tp3394
s(I3019
I3045
tp3395
(I1628
I452
tp3396
s(I3057
I3019
tp3397
(I1357
I399
tp3398
s(I3033
I3046
tp3399
(I1892
I564
tp3400
s(I3068
I3062
tp3401
(I1738
I407
tp3402
s(I3074
I3082
tp3403
(I3173
I913
tp3404
s(I3031
I3077
tp3405
(I784
I230
tp3406
s(I3021
I3027
tp3407
(I1126
I364
tp3408
s(I3018
I3062
tp3409
(I2385
I830
tp3410
s(I3082
I3011
tp3411
(I4154
I1139
tp3412
s(I3055
I3066
tp3413
(I2752
I759
tp3414
s(I3031
I3065
tp3415
(I2589
I736
tp3416
s(I3052
I3055
tp3417
(I1433
I444
tp3418
s(I3063
I3024
tp3419
(I1225
I503
tp3420
s(I3064
I3058
tp3421
(I3083
I839
tp3422
s(I3049
I3028
tp3423
(I980
I374
tp3424
s(I3066
I3034
tp3425
(I4070
I1101
tp3426
s(I3018
I3082
tp3427
(I3046
I995
tp3428
s(I3078
I3040
tp3429
(I4290
I1184
tp3430
s(I3040
I3079
tp3431
(I4308
I1155
tp3432
s(I3030
I3026
tp3433
(I1903
I638
tp3434
s(I3016
I3026
tp3435
(I1792
I624
tp3436
s(I3010
I3033
tp3437
(I687
I221
tp3438
s(I3062
I3019
tp3439
(I2447
I719
tp3440
s(I3048
I3067
tp3441
(I2334
I607
tp3442
s(I3024
I3064
tp3443
(I1553
I360
tp3444
s(I3054
I3019
tp3445
(I3247
I910
tp3446
s(I3074
I3068
tp3447
(I1746
I637
tp3448
s(I3028
I3006
tp3449
(I2197
I543
tp3450
s(I3022
I3021
tp3451
(I368
I60
tp3452
s(I3008
I3057
tp3453
(I1462
I525
tp3454
s(I3033
I3055
tp3455
(I556
I169
tp3456
s(I3074
I3077
tp3457
(I1434
I437
tp3458
s(I3067
I3062
tp3459
(I1151
I329
tp3460
s(I3021
I3020
tp3461
(I4114
I1146
tp3462
s(I3025
I3014
tp3463
(I4541
I1275
tp3464
s(I3080
I3042
tp3465
(I2680
I699
tp3466
s(I3018
I3057
tp3467
(I1717
I440
tp3468
s(I3082
I3018
tp3469
(I3152
I948
tp3470
s(I3020
I3021
tp3471
(I4243
I1180
tp3472
s(I3026
I3051
tp3473
(I2908
I779
tp3474
s(I3031
I3062
tp3475
(I1457
I432
tp3476
s(I3064
I3065
tp3477
(I3137
I963
tp3478
s(I3042
I3030
tp3479
(I579
I220
tp3480
s(I3078
I3035
tp3481
(I3900
I1053
tp3482
s(I3054
I3074
tp3483
(I3245
I896
tp3484
s(I3037
I3034
tp3485
(I3759
I1015
tp3486
s(I3032
I3007
tp3487
(I315
I255
tp3488
s(I3016
I3033
tp3489
(I2107
I539
tp3490
s(I3064
I3019
tp3491
(I1225
I327
tp3492
s(I3027
I3058
tp3493
(I2684
I605
tp3494
s(I3029
I3034
tp3495
(I2447
I697
tp3496
s(I3048
I3042
tp3497
(I1090
I264
tp3498
s(I3081
I3075
tp3499
(I1971
I491
tp3500
s(I3077
I3058
tp3501
(I2191
I540
tp3502
s(I3074
I3063
tp3503
(I1220
I396
tp3504
s(I3076
I3063
tp3505
(I1496
I520
tp3506
s(I3005
I3079
tp3507
(I3272
I896
tp3508
s(I3011
I3069
tp3509
(I2730
I758
tp3510
s(I3022
I3028
tp3511
(I2496
I821
tp3512
s(I3008
I3075
tp3513
(I833
I309
tp3514
s(I3008
I3016
tp3515
(I2873
I811
tp3516
s(I3054
I3005
tp3517
(I2863
I807
tp3518
s(I3033
I3056
tp3519
(I1283
I322
tp3520
s(I3018
I3064
tp3521
(I821
I340
tp3522
s(I3052
I3037
tp3523
(I3710
I1001
tp3524
s(I3045
I3036
tp3525
(I3355
I797
tp3526
s(I3049
I3014
tp3527
(I2391
I595
tp3528
s(I3042
I3025
tp3529
(I4211
I1092
tp3530
s(I3005
I3068
tp3531
(I1368
I542
tp3532
s(I3078
I3026
tp3533
(I1278
I370
tp3534
s(I3037
I3027
tp3535
(I2557
I675
tp3536
s(I3030
I3052
tp3537
(I2693
I810
tp3538
s(I3027
I3067
tp3539
(I714
I226
tp3540
s(I3048
I3049
tp3541
(I2690
I756
tp3542
s(I3024
I3062
tp3543
(I1692
I418
tp3544
s(I3081
I3076
tp3545
(I1243
I364
tp3546
s(I3077
I3067
tp3547
(I815
I224
tp3548
s(I3074
I3022
tp3549
(I3565
I982
tp3550
s(I3068
I3078
tp3551
(I1953
I511
tp3552
s(I3011
I3042
tp3553
(I3903
I1068
tp3554
s(I3008
I3023
tp3555
(I2847
I798
tp3556
s(I3023
I3054
tp3557
(I1655
I378
tp3558
s(I3038
I3079
tp3559
(I1951
I450
tp3560
s(I3082
I3068
tp3561
(I2055
I747
tp3562
s(I3020
I3011
tp3563
(I1506
I436
tp3564
s(I3052
I3028
tp3565
(I2396
I840
tp3566
s(I3063
I3007
tp3567
(I228
I164
tp3568
s(I3049
I3023
tp3569
(I1487
I506
tp3570
s(I3066
I3063
tp3571
(I2652
I764
tp3572
s(I3042
I3048
tp3573
(I1219
I288
tp3574
s(I3078
I3029
tp3575
(I2391
I647
tp3576
s(I3081
I3037
tp3577
(I2355
I568
tp3578
s(I3069
I3020
tp3579
(I3134
I824
tp3580
s(I3052
I3076
tp3581
(I1923
I572
tp3582
s(I3030
I3047
tp3583
(I3174
I811
tp3584
s(I3029
I3078
tp3585
(I2257
I642
tp3586
s(I3062
I3036
tp3587
(I1915
I441
tp3588
s(I3029
I3052
tp3589
(I2377
I743
tp3590
s(I3048
I3024
tp3591
(I2496
I845
tp3592
s(I3075
I3066
tp3593
(I3296
I911
tp3594
s(I3054
I3036
tp3595
(I924
I187
tp3596
s(I3040
I3008
tp3597
(I1302
I331
tp3598
s(I3069
I3005
tp3599
(I1448
I400
tp3600
s(I3014
I3068
tp3601
(I2085
I803
tp3602
s(I3011
I3051
tp3603
(I1916
I519
tp3604
s(I3028
I3019
tp3605
(I2859
I712
tp3606
s(I3008
I3014
tp3607
(I3741
I1016
tp3608
s(I3040
I3007
tp3609
(I1773
I536
tp3610
s(I3057
I3063
tp3611
(I2644
I750
tp3612
s(I3035
I3042
tp3613
(I2867
I796
tp3614
s(I3021
I3063
tp3615
(I1902
I625
tp3616
s(I3023
I3063
tp3617
(I1578
I490
tp3618
s(I3082
I3047
tp3619
(I3946
I1070
tp3620
s(I3036
I3082
tp3621
(I1276
I227
tp3622
s(I3032
I3045
tp3623
(I3115
I825
tp3624
s(I3045
I3022
tp3625
(I3705
I934
tp3626
s(I3047
I3038
tp3627
(I2319
I652
tp3628
s(I3078
I3020
tp3629
(I4980
I1310
tp3630
s(I3081
I3014
tp3631
(I3956
I1076
tp3632
s(I3052
I3075
tp3633
(I1661
I489
tp3634
s(I3016
I3022
tp3635
(I1453
I309
tp3636
s(I3062
I3031
tp3637
(I1280
I362
tp3638
s(I3019
I3079
tp3639
(I3587
I925
tp3640
s(I3048
I3031
tp3641
(I2375
I643
tp3642
s(I3022
I3006
tp3643
(I2890
I800
tp3644
s(I3006
I3075
tp3645
(I840
I224
tp3646
s(I3026
I3064
tp3647
(I2460
I593
tp3648
s(I3054
I3047
tp3649
(I3914
I991
tp3650
s(I3079
I3065
tp3651
(I1923
I475
tp3652
s(I3074
I3008
tp3653
(I538
I175
tp3654
s(I3076
I3052
tp3655
(I2038
I714
tp3656
s(I3014
I3063
tp3657
(I2401
I777
tp3658
s(I3042
I3011
tp3659
(I3892
I1015
tp3660
s(I3028
I3026
tp3661
(I713
I196
tp3662
s(I3008
I3037
tp3663
(I3644
I954
tp3664
s(I3036
I3064
tp3665
(I3457
I936
tp3666
s(I3033
I3019
tp3667
(I679
I231
tp3668
s(I3081
I3082
tp3669
(I2513
I685
tp3670
s(I3035
I3067
tp3671
(I1312
I393
tp3672
s(I3051
I3047
tp3673
(I1761
I424
tp3674
s(I3021
I3056
tp3675
(I3687
I1005
tp3676
s(I3059
I3077
tp3677
(I815
I250
tp3678
s(I3023
I3068
tp3679
(I1262
I516
tp3680
s(I3082
I3054
tp3681
(I1104
I280
tp3682
s(I3032
I3052
tp3683
(I992
I373
tp3684
s(I3052
I3018
tp3685
(I1385
I406
tp3686
s(I3045
I3063
tp3687
(I3131
I927
tp3688
s(I3062
I3007
tp3689
(I1433
I476
tp3690
s(I3047
I3031
tp3691
(I1867
I492
tp3692
s(I3066
I3065
tp3693
(I556
I127
tp3694
s(I3042
I3066
tp3695
(I2083
I570
tp3696
s(I3069
I3038
tp3697
(I1450
I414
tp3698
s(I3030
I3057
tp3699
(I3992
I1025
tp3700
s(I3029
I3080
tp3701
(I2497
I619
tp3702
s(I3026
I3007
tp3703
(I1949
I531
tp3704
s(I3048
I3038
tp3705
(I1779
I477
tp3706
s(I3024
I3035
tp3707
(I1771
I407
tp3708
s(I3006
I3082
tp3709
(I2631
I737
tp3710
s(I3046
I3077
tp3711
(I2003
I534
tp3712
s(I3081
I3029
tp3713
(I2446
I656
tp3714
s(I3077
I3030
tp3715
(I1791
I483
tp3716
s(I3040
I3038
tp3717
(I2357
I705
tp3718
s(I3079
I3062
tp3719
(I1395
I311
tp3720
s(I3051
I3065
tp3721
(I2718
I778
tp3722
s(I3074
I3035
tp3723
(I637
I208
tp3724
s(I3076
I3051
tp3725
(I833
I307
tp3726
s(I3014
I3054
tp3727
(I3143
I649
tp3728
s(I3008
I3028
tp3729
(I2330
I795
tp3730
s(I3019
I3007
tp3731
(I1764
I612
tp3732
s(I3036
I3063
tp3733
(I2642
I748
tp3734
s(I3082
I3078
tp3735
(I2996
I721
tp3736
s(I3038
I3063
tp3737
(I559
I265
tp3738
s(I3055
I3007
tp3739
(I1058
I368
tp3740
s(I3033
I3020
tp3741
(I1710
I462
tp3742
s(I3035
I3056
tp3743
(I1888
I432
tp3744
s(I3075
I3058
tp3745
(I2980
I725
tp3746
s(I3021
I3049
tp3747
(I2231
I671
tp3748
s(I3082
I3049
tp3749
(I2447
I729
tp3750
s(I3032
I3059
tp3751
(I1925
I548
tp3752
s(I3045
I3056
tp3753
(I1910
I569
tp3754
s(I3047
I3020
tp3755
(I1279
I363
tp3756
s(I3020
I3007
tp3757
(I2734
I824
tp3758
s(I3056
I3036
tp3759
(I4027
I1078
tp3760
s(I3081
I3056
tp3761
(I1800
I505
tp3762
s(I3069
I3031
tp3763
(I892
I224
tp3764
s(I3016
I3068
tp3765
(I1289
I507
tp3766
s(I3024
I3026
tp3767
(I769
I247
tp3768
s(I3059
I3006
tp3769
(I1184
I405
tp3770
s(I3040
I3029
tp3771
(I2644
I777
tp3772
s(I3079
I3055
tp3773
(I2591
I652
tp3774
s(I3074
I3026
tp3775
(I2821
I879
tp3776
s(I3065
I3027
tp3777
(I1437
I396
tp3778
s(I3007
I3024
tp3779
(I1509
I531
tp3780
s(I3028
I3040
tp3781
(I2535
I659
tp3782
s(I3006
I3025
tp3783
(I1901
I509
tp3784
s(I3036
I3022
tp3785
(I839
I153
tp3786
s(I3033
I3029
tp3787
(I1237
I349
tp3788
s(I3075
I3067
tp3789
(I747
I216
tp3790
s(I3024
I3018
tp3791
(I2023
I500
tp3792
s(I3060
I3063
tp3793
(I2248
I655
tp3794
s(I3021
I3042
tp3795
(I592
I164
tp3796
s(I3023
I3010
tp3797
(I2244
I553
tp3798
s(I3020
I3047
tp3799
(I1308
I404
tp3800
s(I3034
I3075
tp3801
(I969
I298
tp3802
s(I3032
I3066
tp3803
(I3439
I945
tp3804
s(I3034
I3042
tp3805
(I3223
I904
tp3806
s(I3048
I3005
tp3807
(I3138
I890
tp3808
s(I3056
I3027
tp3809
(I2812
I854
tp3810
s(I3077
I3074
tp3811
(I1449
I465
tp3812
s(I3069
I3024
tp3813
(I1059
I444
tp3814
s(I3068
I3077
tp3815
(I2790
I689
tp3816
s(I3027
I3078
tp3817
(I2656
I760
tp3818
s(I3019
I3036
tp3819
(I3391
I869
tp3820
s(I3054
I3064
tp3821
(I3084
I870
tp3822
s(I3077
I3032
tp3823
(I1652
I538
tp3824
s(I3040
I3052
tp3825
(I460
I108
tp3826
s(I3051
I3063
tp3827
(I663
I213
tp3828
s(I3068
I3023
tp3829
(I1237
I303
tp3830
s(I3076
I3033
tp3831
(I257
I197
tp3832
s(I3014
I3032
tp3833
(I3291
I1005
tp3834
s(I3065
I3028
tp3835
(I1078
I414
tp3836
s(I3007
I3033
tp3837
(I1882
I555
tp3838
s(I3067
I3016
tp3839
(I1300
I350
tp3840
s(I3028
I3055
tp3841
(I2079
I505
tp3842
s(I3006
I3032
tp3843
(I677
I223
tp3844
s(I3018
I3007
tp3845
(I1259
I549
tp3846
s(I3037
I3077
tp3847
(I2147
I491
tp3848
s(I3018
I3077
tp3849
(I1306
I519
tp3850
s(I3055
I3021
tp3851
(I2042
I560
tp3852
s(I3033
I3038
tp3853
(I949
I277
tp3854
s(I3035
I3022
tp3855
(I3519
I956
tp3856
s(I3075
I3040
tp3857
(I2200
I708
tp3858
s(I3063
I3051
tp3859
(I660
I323
tp3860
s(I3023
I3019
tp3861
(I2760
I780
tp3862
s(I3034
I3082
tp3863
(I3483
I995
tp3864
s(I3034
I3053
tp3865
(I318
I80
tp3866
s(I3011
I3076
tp3867
(I1789
I510
tp3868
s(I3047
I3010
tp3869
(I1590
I437
tp3870
s(I3067
I3019
tp3871
(I1653
I484
tp3872
s(I3056
I3018
tp3873
(I1375
I396
tp3874
s(I3081
I3042
tp3875
(I2332
I639
tp3876
s(I3069
I3049
tp3877
(I1035
I318
tp3878
s(I3024
I3008
tp3879
(I1973
I586
tp3880
s(I3019
I3029
tp3881
(I1923
I547
tp3882
s(I3079
I3037
tp3883
(I1986
I371
tp3884
s(I3051
I3052
tp3885
(I1205
I407
tp3886
s(I3068
I3014
tp3887
(I2013
I543
tp3888
s(I3076
I3008
tp3889
(I1901
I580
tp3890
s(I3014
I3027
tp3891
(I1625
I516
tp3892
s(I3065
I3037
tp3893
(I3672
I790
tp3894
s(I3007
I3014
tp3895
(I3257
I846
tp3896
s(I3064
I3080
tp3897
(I1910
I487
tp3898
s(I3011
I3020
tp3899
(I1499
I395
tp3900
s(I3028
I3062
tp3901
(I1712
I412
tp3902
s(I3006
I3011
tp3903
(I1583
I430
tp3904
s(I3025
I3069
tp3905
(I3055
I836
tp3906
s(I3038
I3048
tp3907
(I1611
I368
tp3908
s(I3055
I3018
tp3909
(I1119
I363
tp3910
s(I3075
I3049
tp3911
(I2271
I774
tp3912
s(I3063
I3040
tp3913
(I1615
I563
tp3914
s(I3064
I3010
tp3915
(I1694
I452
tp3916
s(I3067
I3006
tp3917
(I1190
I358
tp3918
s(I3018
I3074
tp3919
(I142
I125
tp3920
s(I3023
I3024
tp3921
(I1181
I510
tp3922
s(I3031
I3006
tp3923
(I606
I177
tp3924
s(I3032
I3016
tp3925
(I2090
I618
tp3926
s(I3034
I3060
tp3927
(I1252
I374
tp3928
s(I3045
I3051
tp3929
(I2740
I751
tp3930
s(I3047
I3067
tp3931
(I2065
I564
tp3932
s(I3058
I3037
tp3933
(I566
I171
tp3934
s(I3069
I3042
tp3935
(I1191
I307
tp3936
s(I3048
I3078
tp3937
(I3522
I817
tp3938
s(I3062
I3082
tp3939
(I1237
I304
tp3940
s(I3046
I3024
tp3941
(I733
I316
tp3942
s(I3025
I3076
tp3943
(I2045
I581
tp3944
s(I3026
I3031
tp3945
(I2779
I735
tp3946
s(I3019
I3018
tp3947
(I1027
I445
tp3948
s(I3077
I3018
tp3949
(I1324
I454
tp3950
s(I3033
I3007
tp3951
(I1630
I543
tp3952
s(I3068
I3037
tp3953
(I3788
I814
tp3954
s(I3076
I3023
tp3955
(I2020
I580
tp3956
s(I3014
I3018
tp3957
(I3435
I1040
tp3958
s(I3065
I3046
tp3959
(I1469
I465
tp3960
s(I3007
I3023
tp3961
(I2535
I724
tp3962
s(I3067
I3014
tp3963
(I2049
I579
tp3964
s(I3028
I3069
tp3965
(I1151
I272
tp3966
s(I3006
I3018
tp3967
(I505
I218
tp3968
s(I3025
I3062
tp3969
(I3643
I1025
tp3970
s(I3055
I3079
tp3971
(I2409
I602
tp3972
s(I3036
I3035
tp3973
(I3591
I956
tp3974
s(I3038
I3027
tp3975
(I541
I170
tp3976
s(I3055
I3027
tp3977
(I999
I322
tp3978
s(I3031
I3014
tp3979
(I2355
I682
tp3980
s(I3038
I3078
tp3981
(I2545
I714
tp3982
s(I3035
I3036
tp3983
(I3322
I875
tp3984
s(I3075
I3054
tp3985
(I2384
I619
tp3986
s(I3063
I3065
tp3987
(I2586
I857
tp3988
s(I3023
I3033
tp3989
(I2081
I548
tp3990
s(I3032
I3023
tp3991
(I2064
I605
tp3992
s(I3032
I3076
tp3993
(I1466
I471
tp3994
s(I3010
I3040
tp3995
(I3022
I989
tp3996
s(I3027
I3010
tp3997
(I2028
I486
tp3998
s(I3047
I3056
tp3999
(I414
I82
tp4000
s(I3056
I3064
tp4001
(I1957
I491
tp4002
s(I3058
I3028
tp4003
(I3582
I1092
tp4004
s(I3069
I3067
tp4005
(I1196
I326
tp4006
s(I3046
I3019
tp4007
(I2031
I490
tp4008
s(I3024
I3006
tp4009
(I2115
I518
tp4010
s(I3026
I3022
tp4011
(I2928
I686
tp4012
s(I3019
I3011
tp4013
(I998
I303
tp4014
s(I3040
I3057
tp4015
(I2793
I637
tp4016
s(I3079
I3027
tp4017
(I1746
I435
tp4018
s(I3051
I3034
tp4019
(I1330
I343
tp4020
s(I3068
I3028
tp4021
(I729
I173
tp4022
s(I3014
I3021
tp4023
(I2162
I431
tp4024
s(I3065
I3055
tp4025
(I2283
I614
tp4026
s(I3007
I3060
tp4027
(I2791
I722
tp4028
s(I3006
I3021
tp4029
(I2655
I739
tp4030
s(I3025
I3055
tp4031
(I2469
I679
tp4032
s(I3038
I3034
tp4033
(I1976
I601
tp4034
s(I3055
I3032
tp4035
(I976
I334
tp4036
s(I3016
I3074
tp4037
(I2764
I755
tp4038
s(I3035
I3029
tp4039
(I1854
I553
tp4040
s(I3075
I3031
tp4041
(I533
I150
tp4042
s(I3063
I3062
tp4043
(I1454
I554
tp4044
s(I3064
I3024
tp4045
(I2309
I778
tp4046
s(I3049
I3062
tp4047
(I1989
I610
tp4048
s(I3060
I3019
tp4049
(I702
I212
tp4050
s(I3005
I3020
tp4051
(I2450
I625
tp4052
s(I3032
I3030
tp4053
(I1763
I527
tp4054
s(I3034
I3014
tp4055
(I3721
I1080
tp4056
s(I3010
I3067
tp4057
(I1382
I409
tp4058
s(I3027
I3019
tp4059
(I1957
I551
tp4060
s(I3047
I3049
tp4061
(I2471
I790
tp4062
s(I3058
I3074
tp4063
(I3437
I917
tp4064
s(I3058
I3023
tp4065
(I2309
I581
tp4066
s(I3069
I3060
tp4067
(I2334
I528
tp4068
s(I3062
I3076
tp4069
(I1420
I389
tp4070
s(I3022
I3055
tp4071
(I2103
I564
tp4072
s(I3019
I3064
tp4073
(I1607
I526
tp4074
s(I3079
I3016
tp4075
(I917
I215
tp4076
s(I3051
I3027
tp4077
(I1227
I403
tp4078
s(I3068
I3027
tp4079
(I1259
I281
tp4080
s(I3053
I3051
tp4081
(I1335
I363
tp4082
s(I3076
I3005
tp4083
(I1468
I510
tp4084
s(I3007
I3069
tp4085
(I1626
I477
tp4086
s(I3067
I3028
tp4087
(I2013
I706
tp4088
s(I3006
I3060
tp4089
(I1954
I445
tp4090
s(I3018
I3027
tp4091
(I2026
I759
tp4092
s(I3038
I3037
tp4093
(I2720
I602
tp4094
s(I3057
I3007
tp4095
(I2811
I822
tp4096
s(I3016
I3081
tp4097
(I2820
I686
tp4098
s(I3030
I3081
tp4099
(I2805
I689
tp4100
s(I3075
I3036
tp4101
(I2757
I698
tp4102
s(I3063
I3023
tp4103
(I1576
I560
tp4104
s(I3064
I3031
tp4105
(I548
I227
tp4106
s(I3065
I3074
tp4107
(I3372
I931
tp4108
s(I3021
I3007
tp4109
(I2069
I672
tp4110
s(I3042
I3076
tp4111
(I2417
I648
tp4112
s(I3082
I3007
tp4113
(I2285
I733
tp4114
s(I3037
I3068
tp4115
(I3549
I1076
tp4116
s(I3032
I3037
tp4117
(I3167
I825
tp4118
s(I3046
I3078
tp4119
(I1541
I470
tp4120
s(I3027
I3024
tp4121
(I1782
I664
tp4122
s(I3062
I3052
tp4123
(I2613
I813
tp4124
s(I3047
I3046
tp4125
(I2627
I727
tp4126
s(I3059
I3067
tp4127
(I1219
I355
tp4128
s(I3058
I3014
tp4129
(I3152
I688
tp4130
s(I3035
I3077
tp4131
(I1793
I520
tp4132
s(I3016
I3076
tp4133
(I1821
I459
tp4134
s(I3025
I3008
tp4135
(I2020
I515
tp4136
s(I3022
I3062
tp4137
(I1004
I256
tp4138
s(I3026
I3008
tp4139
(I2730
I812
tp4140
s(I3019
I3057
tp4141
(I1609
I448
tp4142
s(I3051
I3016
tp4143
(I1734
I495
tp4144
s(I3007
I3066
tp4145
(I3385
I875
tp4146
s(I3067
I3053
tp4147
(I1949
I567
tp4148
s(I3026
I3078
tp4149
(I861
I194
tp4150
s(I3025
I3033
tp4151
(I1794
I507
tp4152
s(I3018
I3034
tp4153
(I468
I145
tp4154
s(I3082
I3031
tp4155
(I2133
I619
tp4156
s(I3055
I3054
tp4157
(I1840
I467
tp4158
s(I3025
I3075
tp4159
(I1887
I506
tp4160
s(I3064
I3038
tp4161
(I1105
I418
tp4162
s(I3007
I3078
tp4163
(I2816
I763
tp4164
s(I3066
I3022
tp4165
(I2595
I607
tp4166
s(I3005
I3038
tp4167
(I1320
I446
tp4168
s(I3078
I3068
tp4169
(I2202
I661
tp4170
s(I3019
I3075
tp4171
(I654
I171
tp4172
s(I3030
I3022
tp4173
(I1438
I313
tp4174
s(I3034
I3016
tp4175
(I2971
I851
tp4176
s(I3027
I3033
tp4177
(I1278
I319
tp4178
s(I3062
I3047
tp4179
(I3094
I814
tp4180
s(I3059
I3008
tp4181
(I1442
I504
tp4182
s(I3021
I3081
tp4183
(I2160
I588
tp4184
s(I3010
I3080
tp4185
(I432
I156
tp4186
s(I3022
I3065
tp4187
(I2308
I544
tp4188
s(I3078
I3082
tp4189
(I2763
I747
tp4190
s(I3019
I3062
tp4191
(I2535
I716
tp4192
s(I3057
I3032
tp4193
(I2387
I723
tp4194
s(I3014
I3074
tp4195
(I3560
I1051
tp4196
s(I3075
I3005
tp4197
(I1089
I354
tp4198
s(I3049
I3077
tp4199
(I2706
I728
tp4200
s(I3067
I3042
tp4201
(I1552
I403
tp4202
s(I3006
I3046
tp4203
(I1273
I374
tp4204
s(I3025
I3026
tp4205
(I4457
I1254
tp4206
s(I3036
I3007
tp4207
(I2809
I794
tp4208
s(I3082
I3038
tp4209
(I1496
I421
tp4210
s(I3038
I3023
tp4211
(I1022
I249
tp4212
s(I3055
I3063
tp4213
(I891
I296
tp4214
s(I3075
I3018
tp4215
(I647
I286
tp4216
s(I3063
I3037
tp4217
(I3078
I918
tp4218
s(I3064
I3045
tp4219
(I2848
I736
tp4220
s(I3042
I3018
tp4221
(I2891
I825
tp4222
s(I3005
I3031
tp4223
(I763
I255
tp4224
s(I3078
I3063
tp4225
(I2768
I790
tp4226
s(I3040
I3082
tp4227
(I3917
I1111
tp4228
s(I3037
I3022
tp4229
(I1411
I304
tp4230
s(I3034
I3027
tp4231
(I2464
I759
tp4232
s(I3027
I3038
tp4233
(I912
I263
tp4234
s(I3029
I3022
tp4235
(I1665
I403
tp4236
s(I3064
I3081
tp4237
(I2245
I565
tp4238
s(I3042
I3005
tp4239
(I2634
I742
tp4240
s(I3021
I3074
tp4241
(I3061
I899
tp4242
s(I3042
I3081
tp4243
(I2280
I572
tp4244
s(I3058
I3064
tp4245
(I3275
I891
tp4246
s(I3056
I3075
tp4247
(I1407
I389
tp4248
s(I3074
I3051
tp4249
(I1014
I319
tp4250
s(I3033
I3079
tp4251
(I2901
I726
tp4252
s(I3029
I3007
tp4253
(I1197
I406
tp4254
s(I3046
I3063
tp4255
(I746
I218
tp4256
s(I3022
I3008
tp4257
(I3604
I1128
tp4258
s(I3032
I3005
tp4259
(I421
I169
tp4260
s(I3078
I3006
tp4261
(I3389
I905
tp4262
s(I3057
I3025
tp4263
(I523
I123
tp4264
s(I3051
I3014
tp4265
(I2483
I724
tp4266
s(I3068
I3064
tp4267
(I918
I353
tp4268
s(I3049
I3082
tp4269
(I2280
I704
tp4270
s(I3007
I3048
tp4271
(I3124
I844
tp4272
s(I3031
I3082
tp4273
(I2118
I596
tp4274
s(I3063
I3082
tp4275
(I2114
I717
tp4276
s(I3021
I3033
tp4277
(I2404
I684
tp4278
s(I3006
I3049
tp4279
(I1745
I596
tp4280
s(I3025
I3019
tp4281
(I1161
I336
tp4282
s(I3018
I3020
tp4283
(I1721
I505
tp4284
s(I3082
I3033
tp4285
(I2621
I744
tp4286
s(I3020
I3032
tp4287
(I2652
I788
tp4288
s(I3055
I3068
tp4289
(I1417
I537
tp4290
s(I3052
I3057
tp4291
(I2875
I610
tp4292
s(I3028
I3078
tp4293
(I1224
I338
tp4294
s(I3063
I3034
tp4295
(I1536
I469
tp4296
s(I3064
I3052
tp4297
(I915
I380
tp4298
s(I3049
I3026
tp4299
(I1087
I318
tp4300
s(I3066
I3024
tp4301
(I1879
I692
tp4302
s(I3005
I3076
tp4303
(I1353
I422
tp4304
s(I3005
I3024
tp4305
(I1743
I679
tp4306
s(I3030
I3032
tp4307
(I2236
I654
tp4308
s(I3027
I3047
tp4309
(I2604
I645
tp4310
s(I3029
I3031
tp4311
(I1044
I292
tp4312
s(I3059
I3022
tp4313
(I3425
I918
tp4314
s(I3074
I3042
tp4315
(I2913
I822
tp4316
s(I3033
I3080
tp4317
(I1159
I247
tp4318
s(I3046
I3054
tp4319
(I2406
I594
tp4320
s(I3022
I3019
tp4321
(I3451
I975
tp4322
s(I3008
I3067
tp4323
(I1571
I461
tp4324
s(I3057
I3018
tp4325
(I1942
I550
tp4326
s(I3051
I3007
tp4327
(I830
I285
tp4328
s(I3068
I3063
tp4329
(I678
I254
tp4330
s(I3067
I3082
tp4331
(I1812
I493
tp4332
s(I3067
I3056
tp4333
(I2278
I616
tp4334
s(I3063
I3075
tp4335
(I1116
I450
tp4336
s(I3021
I3026
tp4337
(I3269
I874
tp4338
s(I3025
I3020
tp4339
(I296
I131
tp4340
s(I3018
I3063
tp4341
(I1092
I477
tp4342
s(I3082
I3008
tp4343
(I3453
I1128
tp4344
s(I3020
I3031
tp4345
(I2488
I705
tp4346
s(I3031
I3064
tp4347
(I983
I310
tp4348
s(I3038
I3081
tp4349
(I2327
I567
tp4350
s(I3052
I3048
tp4351
(I3502
I964
tp4352
s(I3063
I3027
tp4353
(I1095
I482
tp4354
s(I3064
I3059
tp4355
(I1462
I389
tp4356
s(I3049
I3035
tp4357
(I1563
I426
tp4358
s(I3066
I3035
tp4359
(I3784
I1027
tp4360
s(I3042
I3036
tp4361
(I1698
I303
tp4362
s(I3005
I3049
tp4363
(I1235
I496
tp4364
s(I3030
I3027
tp4365
(I570
I165
tp4366
s(I3016
I3027
tp4367
(I829
I220
tp4368
s(I3027
I3052
tp4369
(I2124
I645
tp4370
s(I3062
I3016
tp4371
(I734
I166
tp4372
s(I3048
I3068
tp4373
(I2578
I850
tp4374
s(I3024
I3065
tp4375
(I1572
I400
tp4376
s(I3059
I3031
tp4377
(I1179
I374
tp4378
s(I3074
I3069
tp4379
(I1828
I557
tp4380
s(I3011
I3063
tp4381
(I2123
I607
tp4382
s(I3028
I3007
tp4383
(I1236
I280
tp4384
s(I3022
I3026
tp4385
(I2901
I808
tp4386
s(I3008
I3058
tp4387
(I3719
I973
tp4388
s(I3057
I3011
tp4389
(I684
I214
tp4390
s(I3033
I3054
tp4391
(I2332
I591
tp4392
s(I3005
I3028
tp4393
(I2079
I773
tp4394
s(I3021
I3019
tp4395
(I3083
I915
tp4396
s(I3024
I3078
tp4397
(I1633
I442
tp4398
s(I3082
I3019
tp4399
(I3300
I975
tp4400
s(I3020
I3022
tp4401
(I4611
I1247
tp4402
s(I3031
I3057
tp4403
(I2676
I679
tp4404
s(I3052
I3047
tp4405
(I2256
I549
tp4406
s(I3064
I3066
tp4407
(I3399
I1025
tp4408
s(I3049
I3036
tp4409
(I3464
I875
tp4410
s(I3066
I3042
tp4411
(I2133
I589
tp4412
s(I3042
I3031
tp4413
(I1871
I495
tp4414
s(I3005
I3042
tp4415
(I2621
I761
tp4416
s(I3078
I3032
tp4417
(I3281
I865
tp4418
s(I3046
I3006
tp4419
(I1366
I332
tp4420
s(I3031
I3079
tp4421
(I2509
I640
tp4422
s(I3062
I3011
tp4423
(I3301
I883
tp4424
s(I3029
I3033
tp4425
(I1532
I418
tp4426
s(I3024
I3056
tp4427
(I2851
I641
tp4428
s(I3054
I3027
tp4429
(I2116
I603
tp4430
s(I3058
I3045
tp4431
(I3205
I687
tp4432
s(I3074
I3060
tp4433
(I1562
I448
tp4434
s(I3076
I3056
tp4435
(I1671
I462
tp4436
s(I3011
I3068
tp4437
(I2650
I848
tp4438
s(I3028
I3014
tp4439
(I1383
I331
tp4440
s(I3022
I3029
tp4441
(I1420
I471
tp4442
s(I3008
I3076
tp4443
(I1090
I399
tp4444
s(I3033
I3063
tp4445
(I1447
I465
tp4446
s(I3023
I3040
tp4447
(I3466
I1024
tp4448
s(I3010
I3075
tp4449
(I857
I278
tp4450
s(I3082
I3058
tp4451
(I1703
I309
tp4452
s(I3052
I3038
tp4453
(I1891
I596
tp4454
s(I3045
I3035
tp4455
(I3055
I907
tp4456
s(I3042
I3054
tp4457
(I1430
I338
tp4458
s(I3005
I3067
tp4459
(I1066
I358
tp4460
s(I3078
I3027
tp4461
(I1992
I529
tp4462
s(I3054
I3082
tp4463
(I1116
I269
tp4464
s(I3037
I3026
tp4465
(I4225
I1097
tp4466
s(I3027
I3066
tp4467
(I2406
I654
tp4468
s(I3062
I3034
tp4469
(I2683
I767
tp4470
s(I3029
I3042
tp4471
(I1013
I243
tp4472
s(I3024
I3063
tp4473
(I1488
I374
tp4474
s(I3069
I3077
tp4475
(I1677
I453
tp4476
s(I3054
I3034
tp4477
(I3483
I957
tp4478
s(I3077
I3066
tp4479
(I3363
I919
tp4480
s(I3040
I3018
tp4481
(I1851
I515
tp4482
s(I3074
I3023
tp4483
(I2635
I756
tp4484
s(I3068
I3079
tp4485
(I2180
I502
tp4486
s(I3014
I3066
tp4487
(I1109
I307
tp4488
s(I3011
I3045
tp4489
(I2176
I625
tp4490
s(I3028
I3021
tp4491
(I2158
I504
tp4492
s(I3022
I3036
tp4493
(I839
I135
tp4494
s(I3036
I3051
tp4495
(I2602
I670
tp4496
s(I3057
I3069
tp4497
(I3251
I899
tp4498
s(I3033
I3064
tp4499
(I1639
I518
tp4500
s(I3035
I3052
tp4501
(I617
I231
tp4502
s(I3021
I3069
tp4503
(I1239
I406
tp4504
s(I3023
I3049
tp4505
(I1501
I453
tp4506
s(I3038
I3076
tp4507
(I1119
I350
tp4508
s(I3082
I3069
tp4509
(I1456
I464
tp4510
s(I3052
I3029
tp4511
(I2178
I668
tp4512
s(I3063
I3006
tp4513
(I932
I389
tp4514
s(I3049
I3022
tp4515
(I2625
I740
tp4516
s(I3042
I3049
tp4517
(I1780
I525
tp4518
s(I3005
I3060
tp4519
(I2204
I560
tp4520
s(I3078
I3018
tp4521
(I3802
I1052
tp4522
s(I3069
I3019
tp4523
(I1957
I487
tp4524
s(I3052
I3077
tp4525
(I2118
I635
tp4526
s(I3034
I3006
tp4527
(I938
I290
tp4528
s(I3029
I3077
tp4529
(I1330
I464
tp4530
s(I3062
I3037
tp4531
(I2490
I583
tp4532
s(I3029
I3051
tp4533
(I1172
I336
tp4534
s(I3054
I3037
tp4535
(I1498
I328
tp4536
s(I3074
I3014
tp4537
(I3411
I998
tp4538
s(I3076
I3046
tp4539
(I1941
I619
tp4540
s(I3014
I3069
tp4541
(I1738
I555
tp4542
s(I3042
I3074
tp4543
(I3016
I836
tp4544
s(I3022
I3078
tp4545
(I2559
I643
tp4546
s(I3036
I3042
tp4547
(I1489
I339
tp4548
s(I3035
I3045
tp4549
(I3248
I810
tp4550
s(I3052
I3005
tp4551
(I624
I197
tp4552
s(I3021
I3062
tp4553
(I636
I196
tp4554
s(I3023
I3062
tp4555
(I501
I104
tp4556
s(I3018
I3051
tp4557
(I885
I388
tp4558
s(I3020
I3067
tp4559
(I2405
I684
tp4560
s(I3032
I3046
tp4561
(I1232
I394
tp4562
s(I3052
I3020
tp4563
(I3077
I829
tp4564
s(I3047
I3033
tp4565
(I1370
I375
tp4566
s(I3042
I3040
tp4567
(I3745
I1096
tp4568
s(I3078
I3021
tp4569
(I3269
I721
tp4570
s(I3058
I3007
tp4571
(I2899
I819
tp4572
s(I3016
I3023
tp4573
(I315
I75
tp4574
s(I3062
I3028
tp4575
(I1710
I614
tp4576
s(I3048
I3032
tp4577
(I3251
I938
tp4578
s(I3022
I3007
tp4579
(I2436
I732
tp4580
s(I3076
I3075
tp4581
(I765
I198
tp4582
s(I3026
I3065
tp4583
(I1267
I323
tp4584
s(I3046
I3076
tp4585
(I1808
I472
tp4586
s(I3054
I3079
tp4587
(I2008
I386
tp4588
s(I3077
I3052
tp4589
(I2109
I694
tp4590
s(I3040
I3032
tp4591
(I1192
I331
tp4592
s(I3079
I3064
tp4593
(I3087
I845
tp4594
s(I3065
I3008
tp4595
(I3547
I1100
tp4596
s(I3011
I3027
tp4597
(I3143
I923
tp4598
s(I3028
I3027
tp4599
(I1233
I287
tp4600
s(I3008
I3038
tp4601
(I1825
I549
tp4602
s(I3022
I3081
tp4603
(I2528
I648
tp4604
s(I3036
I3065
tp4605
(I3060
I682
tp4606
s(I3057
I3055
tp4607
(I2665
I742
tp4608
s(I3033
I3018
tp4609
(I659
I309
tp4610
s(I3035
I3066
tp4611
(I3612
I977
tp4612
s(I3016
I3038
tp4613
(I1085
I266
tp4614
s(I3060
I3042
tp4615
(I3216
I838
tp4616
s(I3021
I3055
tp4617
(I1736
I504
tp4618
s(I3059
I3076
tp4619
(I506
I128
tp4620
s(I3082
I3055
tp4621
(I1912
I534
tp4622
s(I3036
I3074
tp4623
(I3618
I961
tp4624
s(I3052
I3019
tp4625
(I2139
I593
tp4626
s(I3047
I3030
tp4627
(I3041
I823
tp4628
s(I3042
I3067
tp4629
(I1795
I527
tp4630
s(I3038
I3024
tp4631
(I1670
I617
tp4632
s(I3081
I3022
tp4633
(I2905
I755
tp4634
s(I3069
I3037
tp4635
(I3463
I752
tp4636
s(I3030
I3062
tp4637
(I802
I182
tp4638
s(I3016
I3062
tp4639
(I817
I179
tp4640
s(I3029
I3069
tp4641
(I367
I140
tp4642
s(I3024
I3036
tp4643
(I3167
I683
tp4644
s(I3026
I3056
tp4645
(I3758
I874
tp4646
s(I3054
I3055
tp4647
(I2001
I521
tp4648
s(I3077
I3029
tp4649
(I1357
I384
tp4650
s(I3051
I3064
tp4651
(I855
I266
tp4652
s(I3074
I3032
tp4653
(I801
I279
tp4654
s(I3014
I3055
tp4655
(I2470
I734
tp4656
s(I3011
I3032
tp4657
(I1703
I509
tp4658
s(I3008
I3029
tp4659
(I2112
I621
tp4660
s(I3019
I3006
tp4661
(I1005
I353
tp4662
s(I3036
I3056
tp4663
(I4245
I1053
tp4664
s(I3082
I3079
tp4665
(I1096
I195
tp4666
s(I3038
I3060
tp4667
(I1970
I488
tp4668
s(I3055
I3006
tp4669
(I706
I216
tp4670
s(I3033
I3027
tp4671
(I1490
I447
tp4672
s(I3035
I3059
tp4673
(I2058
I533
tp4674
s(I3064
I3018
tp4675
(I471
I140
tp4676
s(I3021
I3048
tp4677
(I1417
I240
tp4678
s(I3052
I3010
tp4679
(I2615
I711
tp4680
s(I3047
I3023
tp4681
(I3341
I901
tp4682
s(I3042
I3058
tp4683
(I2125
I399
tp4684
s(I3056
I3037
tp4685
(I4091
I1087
tp4686
s(I3069
I3030
tp4687
(I679
I219
tp4688
s(I3076
I3068
tp4689
(I2039
I767
tp4690
s(I3016
I3069
tp4691
(I942
I259
tp4692
s(I3048
I3014
tp4693
(I2741
I568
tp4694
s(I3024
I3027
tp4695
(I1213
I291
tp4696
s(I3008
I3005
tp4697
(I558
I151
tp4698
s(I3054
I3062
tp4699
(I1626
I435
tp4700
s(I3077
I3038
tp4701
(I1069
I312
tp4702
s(I3040
I3030
tp4703
(I3079
I876
tp4704
s(I3079
I3054
tp4705
(I2008
I388
tp4706
s(I3008
I3048
tp4707
(I3436
I917
tp4708
s(I3074
I3027
tp4709
(I2154
I677
tp4710
s(I3076
I3027
tp4711
(I1539
I502
tp4712
s(I3014
I3046
tp4713
(I1657
I587
tp4714
s(I3065
I3026
tp4715
(I1132
I362
tp4716
s(I3007
I3027
tp4717
(I2054
I646
tp4718
s(I3046
I3007
tp4719
(I913
I265
tp4720
s(I3006
I3030
tp4721
(I1793
I502
tp4722
s(I3036
I3023
tp4723
(I1714
I410
tp4724
s(I3035
I3016
tp4725
(I2615
I743
tp4726
s(I3069
I3076
tp4727
(I1482
I390
tp4728
s(I3060
I3056
tp4729
(I946
I305
tp4730
s(I3023
I3021
tp4731
(I947
I196
tp4732
s(I3020
I3040
tp4733
(I3649
I1094
tp4734
s(I3032
I3067
tp4735
(I843
I319
tp4736
s(I3014
I3081
tp4737
(I3391
I914
tp4738
s(I3045
I3064
tp4739
(I3142
I912
tp4740
s(I3048
I3006
tp4741
(I2982
I825
tp4742
s(I3081
I3064
tp4743
(I2603
I753
tp4744
s(I3069
I3055
tp4745
(I992
I262
tp4746
s(I3027
I3081
tp4747
(I2579
I600
tp4748
s(I3048
I3021
tp4749
(I616
I138
tp4750
s(I3025
I3081
tp4751
(I2267
I624
tp4752
s(I3026
I3042
tp4753
(I2245
I628
tp4754
s(I3054
I3065
tp4755
(I3657
I813
tp4756
s(I3051
I3062
tp4757
(I1585
I474
tp4758
s(I3068
I3016
tp4759
(I1263
I317
tp4760
s(I3053
I3078
tp4761
(I4378
I1241
tp4762
s(I3076
I3034
tp4763
(I1282
I377
tp4764
s(I3014
I3033
tp4765
(I2903
I835
tp4766
s(I3007
I3032
tp4767
(I315
I137
tp4768
s(I3064
I3074
tp4769
(I596
I150
tp4770
s(I3011
I3014
tp4771
(I4519
I1220
tp4772
s(I3028
I3048
tp4773
(I2655
I635
tp4774
s(I3006
I3033
tp4775
(I1045
I278
tp4776
s(I3025
I3067
tp4777
(I2489
I696
tp4778
s(I3036
I3014
tp4779
(I2531
I532
tp4780
s(I3082
I3081
tp4781
(I2336
I617
tp4782
s(I3053
I3005
tp4783
(I1513
I440
tp4784
s(I3055
I3020
tp4785
(I2297
I624
tp4786
s(I3033
I3037
tp4787
(I2769
I680
tp4788
s(I3023
I3018
tp4789
(I2612
I753
tp4790
s(I3032
I3010
tp4791
(I2158
I611
tp4792
s(I3010
I3055
tp4793
(I1243
I390
tp4794
s(I3047
I3069
tp4795
(I2553
I688
tp4796
s(I3056
I3019
tp4797
(I681
I220
tp4798
s(I3077
I3007
tp4799
(I1750
I578
tp4800
s(I3077
I3082
tp4801
(I2131
I586
tp4802
s(I3069
I3048
tp4803
(I2356
I568
tp4804
s(I3075
I3076
tp4805
(I304
I103
tp4806
s(I3016
I3051
tp4807
(I1747
I458
tp4808
s(I3046
I3038
tp4809
(I1219
I340
tp4810
s(I3025
I3074
tp4811
(I1736
I487
tp4812
s(I3026
I3037
tp4813
(I4254
I948
tp4814
s(I3077
I3008
tp4815
(I2387
I716
tp4816
s(I3079
I3036
tp4817
(I1411
I230
tp4818
s(I3051
I3055
tp4819
(I228
I81
tp4820
s(I3014
I3024
tp4821
(I2003
I797
tp4822
s(I3065
I3036
tp4823
(I3097
I649
tp4824
s(I3067
I3008
tp4825
(I1904
I691
tp4826
s(I3011
I3023
tp4827
(I3624
I1001
tp4828
s(I3028
I3063
tp4829
(I1318
I457
tp4830
s(I3006
I3008
tp4831
(I1121
I438
tp4832
s(I3036
I3037
tp4833
(I622
I150
tp4834
s(I3038
I3049
tp4835
(I1646
I477
tp4836
s(I3055
I3029
tp4837
(I745
I224
tp4838
s(I3031
I3016
tp4839
(I1606
I453
tp4840
s(I3035
I3014
tp4841
(I3483
I948
tp4842
s(I3075
I3048
tp4843
(I2613
I672
tp4844
s(I3064
I3011
tp4845
(I1548
I353
tp4846
s(I3060
I3014
tp4847
(I3714
I1014
tp4848
s(I3023
I3027
tp4849
(I802
I229
tp4850
s(I3047
I3066
tp4851
(I4613
I1259
tp4852
s(I3059
I3047
tp4853
(I1233
I355
tp4854
s(I3056
I3010
tp4855
(I1542
I454
tp4856
s(I3058
I3034
tp4857
(I3675
I978
tp4858
s(I3048
I3079
tp4859
(I1622
I291
tp4860
s(I3046
I3025
tp4861
(I3175
I771
tp4862
s(I3022
I3042
tp4863
(I999
I239
tp4864
s(I3026
I3028
tp4865
(I713
I251
tp4866
s(I3019
I3021
tp4867
(I3220
I883
tp4868
s(I3040
I3067
tp4869
(I2103
I617
tp4870
s(I3079
I3029
tp4871
(I2083
I521
tp4872
s(I3033
I3006
tp4873
(I878
I265
tp4874
s(I3068
I3038
tp4875
(I2171
I543
tp4876
s(I3076
I3016
tp4877
(I2047
I594
tp4878
s(I3014
I3019
tp4879
(I3582
I1067
tp4880
s(I3007
I3022
tp4881
(I3465
I951
tp4882
s(I3067
I3033
tp4883
(I1072
I304
tp4884
s(I3006
I3019
tp4885
(I1322
I319
tp4886
s(I3055
I3078
tp4887
(I3003
I866
tp4888
s(I3036
I3028
tp4889
(I2987
I921
tp4890
s(I3020
I3006
tp4891
(I1975
I565
tp4892
s(I3080
I3025
tp4893
(I1815
I531
tp4894
s(I3075
I3025
tp4895
(I1847
I482
tp4896
s(I3063
I3064
tp4897
(I627
I266
tp4898
s(I3067
I3075
tp4899
(I1117
I335
tp4900
s(I3060
I3021
tp4901
(I3500
I931
tp4902
s(I3055
I3026
tp4903
(I2995
I928
tp4904
s(I3023
I3032
tp4905
(I2469
I718
tp4906
s(I3037
I3049
tp4907
(I3662
I982
tp4908
s(I3032
I3024
tp4909
(I1563
I601
tp4910
s(I3032
I3077
tp4911
(I1660
I535
tp4912
s(I3034
I3068
tp4913
(I2056
I719
tp4914
s(I3047
I3059
tp4915
(I1311
I361
tp4916
s(I3059
I3052
tp4917
(I2318
I784
tp4918
s(I3060
I3080
tp4919
(I390
I96
tp4920
s(I3058
I3029
tp4921
(I2505
I623
tp4922
s(I3079
I3005
tp4923
(I3299
I876
tp4924
s(I3069
I3066
tp4925
(I2184
I597
tp4926
s(I3062
I3074
tp4927
(I2425
I703
tp4928
s(I3046
I3016
tp4929
(I861
I250
tp4930
s(I3024
I3007
tp4931
(I1154
I255
tp4932
s(I3076
I3082
tp4933
(I2559
I737
tp4934
s(I3026
I3023
tp4935
(I1967
I562
tp4936
s(I3019
I3010
tp4937
(I819
I246
tp4938
s(I3040
I3058
tp4939
(I4251
I1130
tp4940
s(I3079
I3026
tp4941
(I2516
I738
tp4942
s(I3051
I3037
tp4943
(I2505
I638
tp4944
s(I3068
I3029
tp4945
(I1658
I399
tp4946
s(I3014
I3010
tp4947
(I3230
I884
tp4948
s(I3065
I3054
tp4949
(I3070
I794
tp4950
s(I3007
I3063
tp4951
(I228
I279
tp4952
s(I3067
I3038
tp4953
(I252
I88
tp4954
s(I3011
I3005
tp4955
(I1336
I354
tp4956
s(I3006
I3058
tp4957
(I3049
I752
tp4958
s(I3036
I3027
tp4959
(I1984
I525
tp4960
s(I3038
I3035
tp4961
(I1690
I527
tp4962
s(I3055
I3035
tp4963
(I1217
I370
tp4964
s(I3016
I3075
tp4965
(I2156
I571
tp4966
s(I3035
I3028
tp4967
(I2072
I727
tp4968
s(I3075
I3030
tp4969
(I1723
I475
tp4970
s(I3063
I3057
tp4971
(I2786
I765
tp4972
s(I3064
I3025
tp4973
(I1867
I432
tp4974
s(I3066
I3005
tp4975
(I3430
I944
tp4976
s(I3005
I3019
tp4977
(I1512
I390
tp4978
s(I3037
I3042
tp4979
(I2062
I490
tp4980
s(I3032
I3031
tp4981
(I876
I305
tp4982
s(I3010
I3064
tp4983
(I1950
I632
tp4984
s(I3027
I3018
tp4985
(I1810
I524
tp4986
s(I3047
I3048
tp4987
(I3930
I1020
tp4988
s(I3058
I3075
tp4989
(I2826
I736
tp4990
s(I3058
I3020
tp4991
(I4490
I1167
tp4992
s(I3069
I3059
tp4993
(I1942
I466
tp4994
s(I3031
I3038
tp4995
(I557
I191
tp4996
s(I3062
I3077
tp4997
(I1174
I346
tp4998
s(I3046
I3011
tp4999
(I2856
I692
tp5000
s(I3026
I3014
tp5001
(I1436
I362
tp5002
s(I3019
I3067
tp5003
(I1381
I387
tp5004
s(I3079
I3019
tp5005
(I3703
I985
tp5006
s(I3051
I3026
tp5007
(I2767
I845
tp5008
s(I3068
I3052
tp5009
(I1703
I616
tp5010
s(I3076
I3006
tp5011
(I840
I326
tp5012
s(I3051
I3078
tp5013
(I3230
I947
tp5014
s(I3065
I3063
tp5015
(I2213
I657
tp5016
s(I3007
I3068
tp5017
(I505
I329
tp5018
s(I3067
I3031
tp5019
(I584
I181
tp5020
s(I3025
I3047
tp5021
(I1189
I340
tp5022
s(I3018
I3024
tp5023
(I2475
I959
tp5024
s(I3038
I3010
tp5025
(I1819
I455
tp5026
s(I3055
I3040
tp5027
(I1973
I640
tp5028
s(I3016
I3082
tp5029
(I1108
I273
tp5030
s(I3063
I3022
tp5031
(I2506
I787
tp5032
s(I3064
I3032
tp5033
(I737
I223
tp5034
s(I3060
I3027
tp5035
(I2457
I693
tp5036
s(I3021
I3006
tp5037
(I2523
I740
tp5038
s(I3042
I3077
tp5039
(I1978
I469
tp5040
s(I3078
I3066
tp5041
(I316
I76
tp5042
s(I3037
I3067
tp5043
(I2416
I596
tp5044
s(I3032
I3038
tp5045
(I1042
I356
tp5046
s(I3034
I3022
tp5047
(I3875
I1064
tp5048
s(I3010
I3059
tp5049
(I164
I54
tp5050
s(I3023
I3075
tp5051
(I2129
I580
tp5052
s(I3056
I3063
tp5053
(I1967
I571
tp5054
s(I3035
I3076
tp5055
(I1599
I457
tp5056
s(I3068
I3075
tp5057
(I2586
I631
tp5058
s(I3046
I3066
tp5059
(I2106
I592
tp5060
s(I3022
I3063
tp5061
(I2270
I685
tp5062
s(I3019
I3056
tp5063
(I748
I229
tp5064
s(I3078
I3079
tp5065
(I2516
I600
tp5066
s(I3051
I3019
tp5067
(I1143
I291
tp5068
s(I3068
I3051
tp5069
(I2178
I519
tp5070
s(I3065
I3064
tp5071
(I2779
I806
tp5072
s(I3049
I3075
tp5073
(I2253
I588
tp5074
s(I3067
I3052
tp5075
(I1917
I632
tp5076
s(I3080
I3074
tp5077
(I1660
I502
tp5078
s(I3006
I3068
tp5079
(I1118
I429
tp5080
s(I3025
I3032
tp5081
(I2532
I723
tp5082
s(I3018
I3035
tp5083
(I734
I326
tp5084
s(I3055
I3049
tp5085
(I2044
I707
tp5086
s(I3031
I3052
tp5087
(I1333
I451
tp5088
s(I3052
I3068
tp5089
(I1938
I692
tp5090
s(I3045
I3005
tp5091
(I3103
I915
tp5092
s(I3049
I3047
tp5093
(I2836
I670
tp5094
s(I3066
I3023
tp5095
(I1854
I523
tp5096
s(I3060
I3034
tp5097
(I1252
I360
tp5098
s(I3030
I3005
tp5099
(I2123
I607
tp5100
s(I3078
I3069
tp5101
(I2106
I568
tp5102
s(I3019
I3074
tp5103
(I885
I319
tp5104
s(I3030
I3023
tp5105
(I300
I78
tp5106
s(I3016
I3007
tp5107
(I1772
I528
tp5108
s(I3027
I3032
tp5109
(I1666
I489
tp5110
s(I3023
I3080
tp5111
(I2370
I564
tp5112
s(I3059
I3011
tp5113
(I1425
I476
tp5114
s(I3056
I3054
tp5115
(I3654
I998
tp5116
s(I3069
I3081
tp5117
(I2725
I642
tp5118
s(I3046
I3069
tp5119
(I368
I98
tp5120
s(I3008
I3054
tp5121
(I3207
I864
tp5122
s(I3019
I3049
tp5123
(I2750
I949
tp5124
s(I3014
I3075
tp5125
(I2951
I867
tp5126
s(I3068
I3042
tp5127
(I1515
I369
tp5128
s(I3049
I3076
tp5129
(I2511
I667
tp5130
s(I3006
I3047
tp5131
(I1376
I361
tp5132
s(I3038
I3020
tp5133
(I2771
I784
tp5134
s(I3055
I3062
tp5135
(I1357
I393
tp5136
s(I3031
I3045
tp5137
(I2239
I519
tp5138
s(I3052
I3067
tp5139
(I1637
I508
tp5140
s(I3075
I3021
tp5141
(I2586
I712
tp5142
s(I3063
I3036
tp5143
(I2699
I774
tp5144
s(I3064
I3046
tp5145
(I1307
I462
tp5146
s(I3049
I3048
tp5147
(I2898
I738
tp5148
s(I3066
I3030
tp5149
(I1622
I502
tp5150
s(I3042
I3019
tp5151
(I3038
I852
tp5152
s(I3005
I3030
tp5153
(I2042
I617
tp5154
s(I3081
I3006
tp5155
(I2000
I579
tp5156
s(I3037
I3021
tp5157
(I1779
I364
tp5158
s(I3030
I3014
tp5159
(I1076
I320
tp5160
s(I3034
I3024
tp5161
(I2681
I916
tp5162
s(I3029
I3021
tp5163
(I1297
I336
tp5164
s(I3056
I3076
tp5165
(I1574
I480
tp5166
s(I3074
I3048
tp5167
(I3224
I875
tp5168
s(I3033
I3078
tp5169
(I3494
I990
tp5170
s(I3029
I3006
tp5171
(I1651
I474
tp5172
s(I3008
I3045
tp5173
(I2739
I752
tp5174
s(I3019
I3054
tp5175
(I3018
I790
tp5176
s(I3068
I3065
tp5177
(I1943
I466
tp5178
s(I3007
I3051
tp5179
(I1222
I375
tp5180
s(I3067
I3066
tp5181
(I2546
I695
tp5182
s(I3063
I3077
tp5183
(I1573
I595
tp5184
s(I3021
I3032
tp5185
(I2792
I853
tp5186
s(I3006
I3054
tp5187
(I2453
I645
tp5188
s(I3025
I3018
tp5189
(I1637
I543
tp5190
s(I3080
I3062
tp5191
(I2003
I601
tp5192
s(I3018
I3021
tp5193
(I3070
I997
tp5194
s(I3082
I3014
tp5195
(I2216
I472
tp5196
s(I3020
I3033
tp5197
(I1710
I495
tp5198
s(I3031
I3042
tp5199
(I1858
I506
tp5200
s(I3052
I3058
tp5201
(I3785
I1020
tp5202
s(I3028
I3079
tp5203
(I1605
I386
tp5204
s(I3063
I3029
tp5205
(I841
I383
tp5206
s(I3047
I3007
tp5207
(I2113
I611
tp5208
s(I3066
I3025
tp5209
(I5006
I1294
tp5210
s(I3005
I3075
tp5211
(I1033
I287
tp5212
s(I3005
I3055
tp5213
(I863
I294
tp5214
s(I3078
I3055
tp5215
(I2838
I746
tp5216
s(I3040
I3074
tp5217
(I1724
I459
tp5218
s(I3037
I3014
tp5219
(I3103
I683
tp5220
s(I3030
I3033
tp5221
(I1848
I485
tp5222
s(I3034
I3035
tp5223
(I945
I283
tp5224
s(I3029
I3030
tp5225
(I435
I99
tp5226
s(I3048
I3062
tp5227
(I1095
I281
tp5228
s(I3059
I3025
tp5229
(I1780
I536
tp5230
s(I3054
I3014
tp5231
(I3127
I663
tp5232
s(I3058
I3056
tp5233
(I4063
I1063
tp5234
s(I3011
I3057
tp5235
(I684
I170
tp5236
s(I3046
I3055
tp5237
(I1318
I343
tp5238
s(I3022
I3016
tp5239
(I1539
I379
tp5240
s(I3008
I3068
tp5241
(I1872
I645
tp5242
s(I3019
I3047
tp5243
(I791
I234
tp5244
s(I3051
I3006
tp5245
(I478
I133
tp5246
s(I3068
I3056
tp5247
(I2216
I635
tp5248
s(I3074
I3080
tp5249
(I1823
I479
tp5250
s(I3067
I3059
tp5251
(I1264
I299
tp5252
s(I3063
I3074
tp5253
(I1223
I416
tp5254
s(I3023
I3007
tp5255
(I1745
I537
tp5256
s(I3025
I3011
tp5257
(I1242
I312
tp5258
s(I3018
I3060
tp5259
(I1431
I442
tp5260
s(I3038
I3006
tp5261
(I1179
I378
tp5262
s(I3031
I3067
tp5263
(I303
I103
tp5264
s(I3052
I3049
tp5265
(I1552
I563
tp5266
s(I3063
I3026
tp5267
(I2156
I696
tp5268
s(I3049
I3034
tp5269
(I2152
I566
tp5270
s(I3066
I3032
tp5271
(I3543
I991
tp5272
s(I3042
I3037
tp5273
(I2273
I445
tp5274
s(I3005
I3048
tp5275
(I2932
I814
tp5276
s(I3078
I3046
tp5277
(I1541
I423
tp5278
s(I3030
I3024
tp5279
(I948
I446
tp5280
s(I3016
I3028
tp5281
(I1299
I502
tp5282
s(I3010
I3031
tp5283
(I1343
I428
tp5284
s(I3027
I3055
tp5285
(I846
I218
tp5286
s(I3048
I3069
tp5287
(I1699
I490
tp5288
s(I3024
I3066
tp5289
(I1870
I468
tp5290
s(I3077
I3063
tp5291
(I1567
I500
tp5292
s(I3058
I3051
tp5293
(I2420
I625
tp5294
s(I3020
I3027
tp5295
(I3200
I942
tp5296
s(I3011
I3062
tp5297
(I3502
I993
tp5298
s(I3022
I3027
tp5299
(I1494
I424
tp5300
s(I3008
I3059
tp5301
(I1549
I475
tp5302
s(I3074
I3075
tp5303
(I659
I216
tp5304
s(I3021
I3018
tp5305
(I2936
I888
tp5306
s(I3024
I3079
tp5307
(I1890
I449
tp5308
s(I3082
I3016
tp5309
(I1108
I301
tp5310
s(I3031
I3056
tp5311
(I1847
I466
tp5312
s(I3052
I3040
tp5313
(I534
I150
tp5314
s(I3010
I3007
tp5315
(I2107
I718
tp5316
s(I3045
I3025
tp5317
(I1280
I405
tp5318
s(I3064
I3067
tp5319
(I851
I330
tp5320
s(I3049
I3011
tp5321
(I2497
I652
tp5322
s(I3042
I3028
tp5323
(I1551
I583
tp5324
s(I3078
I3033
tp5325
(I3271
I848
tp5326
s(I3037
I3032
tp5327
(I3253
I912
tp5328
s(I3030
I3051
tp5329
(I1488
I404
tp5330
s(I3016
I3035
tp5331
(I2737
I745
tp5332
s(I3027
I3060
tp5333
(I2187
I486
tp5334
s(I3062
I3008
tp5335
(I2600
I872
tp5336
s(I3029
I3032
tp5337
(I1920
I587
tp5338
s(I3024
I3057
tp5339
(I3389
I803
tp5340
s(I3069
I3078
tp5341
(I1895
I554
tp5342
s(I3054
I3024
tp5343
(I3027
I1001
tp5344
s(I3058
I3042
tp5345
(I2084
I510
tp5346
s(I3057
I3006
tp5347
(I2052
I563
tp5348
s(I3076
I3057
tp5349
(I2511
I646
tp5350
s(I3022
I3034
tp5351
(I3687
I1023
tp5352
s(I3008
I3077
tp5353
(I2052
I588
tp5354
s(I3008
I3018
tp5355
(I558
I224
tp5356
s(I3057
I3067
tp5357
(I2686
I759
tp5358
s(I3033
I3062
tp5359
(I1849
I518
tp5360
s(I3080
I3051
tp5361
(I1903
I549
tp5362
s(I3038
I3074
tp5363
(I1718
I537
tp5364
s(I3019
I3058
tp5365
(I3614
I896
tp5366
s(I3020
I3014
tp5367
(I4457
I1263
tp5368
s(I3033
I3077
tp5369
(I770
I204
tp5370
s(I3042
I3055
tp5371
(I1927
I519
tp5372
s(I3005
I3066
tp5373
(I3619
I1023
tp5374
s(I3078
I3024
tp5375
(I1595
I574
tp5376
s(I3030
I3042
tp5377
(I579
I144
tp5378
s(I3027
I3069
tp5379
(I185
I127
tp5380
s(I3062
I3035
tp5381
(I2398
I693
tp5382
s(I3048
I3051
tp5383
(I2504
I687
tp5384
s(I3024
I3048
tp5385
(I2634
I641
tp5386
s(I3054
I3035
tp5387
(I3218
I891
tp5388
s(I3074
I3020
tp5389
(I1852
I509
tp5390
s(I3076
I3064
tp5391
(I1442
I500
tp5392
s(I3014
I3067
tp5393
(I2436
I692
tp5394
s(I3007
I3006
tp5395
(I1494
I438
tp5396
s(I3045
I3074
tp5397
(I2420
I706
tp5398
s(I3028
I3022
tp5399
(I2264
I496
tp5400
s(I3022
I3037
tp5401
(I1413
I276
tp5402
s(I3008
I3046
tp5403
(I2027
I593
tp5404
s(I3035
I3055
tp5405
(I1108
I329
tp5406
s(I3074
I3007
tp5407
(I1387
I467
tp5408
s(I3021
I3068
tp5409
(I2079
I751
tp5410
s(I3023
I3048
tp5411
(I1444
I328
tp5412
s(I3038
I3077
tp5413
(I1238
I338
tp5414
s(I3082
I3066
tp5415
(I3007
I684
tp5416
s(I3020
I3069
tp5417
(I3174
I901
tp5418
s(I3032
I3040
tp5419
(I1192
I389
tp5420
s(I3052
I3030
tp5421
(I2613
I767
tp5422
s(I3045
I3011
tp5423
(I2176
I638
tp5424
s(I3049
I3021
tp5425
(I2434
I702
tp5426
s(I3042
I3046
tp5427
(I1113
I372
tp5428
s(I3005
I3059
tp5429
(I1812
I498
tp5430
s(I3069
I3018
tp5431
(I1705
I477
tp5432
s(I3052
I3078
tp5433
(I3367
I979
tp5434
s(I3030
I3045
tp5435
(I3229
I755
tp5436
s(I3034
I3007
tp5437
(I1697
I549
tp5438
s(I3029
I3076
tp5439
(I1590
I446
tp5440
s(I3062
I3026
tp5441
(I2573
I805
tp5442
s(I3024
I3055
tp5443
(I2058
I509
tp5444
s(I3068
I3066
tp5445
(I2241
I533
tp5446
s(I3046
I3079
tp5447
(I1777
I435
tp5448
s(I3054
I3042
tp5449
(I1621
I420
tp5450
s(I3077
I3042
tp5451
(I1850
I500
tp5452
s(I3076
I3047
tp5453
(I1693
I431
tp5454
s(I3014
I3058
tp5455
(I2973
I587
tp5456
s(I3028
I3029
tp5457
(I1632
I406
tp5458
s(I3008
I3032
tp5459
(I926
I305
tp5460
s(I3022
I3079
tp5461
(I659
I117
tp5462
s(I3033
I3008
tp5463
(I1534
I482
tp5464
s(I3052
I3006
tp5465
(I1477
I426
tp5466
s(I3018
I3048
tp5467
(I3097
I957
tp5468
s(I3036
I3076
tp5469
(I2695
I665
tp5470
s(I3032
I3047
tp5471
(I1798
I418
tp5472
s(I3052
I3021
tp5473
(I3475
I1004
tp5474
s(I3045
I3020
tp5475
(I1215
I385
tp5476
s(I3047
I3032
tp5477
(I1553
I462
tp5478
s(I3066
I3068
tp5479
(I2336
I787
tp5480
s(I3020
I3005
tp5481
(I2539
I740
tp5482
s(I3069
I3011
tp5483
(I2737
I710
tp5484
s(I3030
I3068
tp5485
(I1030
I452
tp5486
s(I3062
I3029
tp5487
(I416
I215
tp5488
s(I3029
I3059
tp5489
(I2049
I522
tp5490
s(I3048
I3033
tp5491
(I2863
I768
tp5492
s(I3024
I3046
tp5493
(I742
I156
tp5494
s(I3026
I3062
tp5495
(I2468
I666
tp5496
s(I3054
I3045
tp5497
(I3014
I668
tp5498
s(I3077
I3051
tp5499
(I904
I287
tp5500
s(I3040
I3033
tp5501
(I2331
I653
tp5502
s(I3079
I3067
tp5503
(I2556
I610
tp5504
s(I3074
I3038
tp5505
(I1613
I507
tp5506
s(I3076
I3054
tp5507
(I2192
I535
tp5508
s(I3066
I3074
tp5509
(I3812
I1037
tp5510
s(I3011
I3026
tp5511
(I3215
I943
tp5512
s(I3036
I3066
tp5513
(I3322
I744
tp5514
s(I3038
I3058
tp5515
(I2572
I556
tp5516
s(I3057
I3054
tp5517
(I4322
I1161
tp5518
s(I3035
I3069
tp5519
(I1694
I486
tp5520
s(I3021
I3054
tp5521
(I995
I263
tp5522
s(I3082
I3052
tp5523
(I3466
I1070
tp5524
s(I3036
I3075
tp5525
(I3007
I780
tp5526
s(I3032
I3054
tp5527
(I2424
I672
tp5528
s(I3062
I3005
tp5529
(I2043
I609
tp5530
s(I3047
I3025
tp5531
(I983
I232
tp5532
s(I3042
I3064
tp5533
(I2423
I711
tp5534
s(I3020
I3063
tp5535
(I2567
I752
tp5536
s(I3079
I3074
tp5537
(I3681
I970
tp5538
s(I3069
I3036
tp5539
(I2889
I610
tp5540
s(I3030
I3063
tp5541
(I1346
I427
tp5542
s(I3016
I3063
tp5543
(I1605
I481
tp5544
s(I3029
I3068
tp5545
(I1464
I551
tp5546
s(I3048
I3008
tp5547
(I3696
I1153
tp5548
s(I3024
I3037
tp5549
(I3742
I825
tp5550
s(I3047
I3006
tp5551
(I1354
I352
tp5552
s(I3054
I3052
tp5553
(I3434
I1011
tp5554
s(I3040
I3024
tp5555
(I2257
I726
tp5556
s(I3051
I3067
tp5557
(I432
I145
tp5558
s(I3074
I3033
tp5559
(I858
I270
tp5560
s(I3076
I3029
tp5561
(I1285
I403
tp5562
s(I3014
I3052
tp5563
(I3748
I1161
tp5564
s(I3065
I3016
tp5565
(I1057
I340
tp5566
s(I3007
I3029
tp5567
(I1800
I548
tp5568
s(I3011
I3035
tp5569
(I1036
I272
tp5570
s(I3028
I3035
tp5571
(I2208
I530
tp5572
s(I3008
I3030
tp5573
(I2547
I720
tp5574
s(I3082
I3076
tp5575
(I2232
I614
tp5576
s(I3057
I3047
tp5577
(I801
I249
tp5578
s(I3035
I3058
tp5579
(I3460
I905
tp5580
s(I3075
I3060
tp5581
(I1155
I241
tp5582
s(I3021
I3047
tp5583
(I3730
I1010
tp5584
s(I3006
I3007
tp5585
(I759
I259
tp5586
s(I3079
I3008
tp5587
(I3856
I1138
tp5588
s(I3034
I3078
tp5589
(I3988
I1149
tp5590
s(I3052
I3011
tp5591
(I1898
I428
tp5592
s(I3047
I3022
tp5593
(I4271
I1127
tp5594
s(I3056
I3038
tp5595
(I2271
I683
tp5596
s(I3081
I3062
tp5597
(I2156
I570
tp5598
s(I3069
I3029
tp5599
(I835
I293
tp5600
s(I3027
I3075
tp5601
(I1327
I351
tp5602
s(I3024
I3028
tp5603
(I358
I108
tp5604
s(I3008
I3006
tp5605
(I802
I302
tp5606
s(I3019
I3033
tp5607
(I686
I198
tp5608
s(I3054
I3063
tp5609
(I2268
I682
tp5610
s(I3077
I3037
tp5611
(I2116
I522
tp5612
s(I3040
I3031
tp5613
(I1799
I515
tp5614
s(I3074
I3024
tp5615
(I2377
I841
tp5616
s(I3018
I3078
tp5617
(I3782
I1192
tp5618
s(I3007
I3045
tp5619
(I3589
I936
tp5620
s(I3014
I3047
tp5621
(I4229
I1161
tp5622
s(I3007
I3026
tp5623
(I1953
I569
tp5624
s(I3011
I3008
tp5625
(I778
I203
tp5626
s(I3028
I3042
tp5627
(I1489
I374
tp5628
s(I3006
I3031
tp5629
(I513
I140
tp5630
s(I3036
I3016
tp5631
(I2328
I470
tp5632
s(I3035
I3048
tp5633
(I3178
I849
tp5634
s(I3055
I3014
tp5635
(I2256
I643
tp5636
s(I3035
I3019
tp5637
(I1815
I478
tp5638
s(I3075
I3069
tp5639
(I1219
I347
tp5640
s(I3063
I3052
tp5641
(I1412
I529
tp5642
s(I3060
I3057
tp5643
(I1807
I524
tp5644
s(I3021
I3040
tp5645
(I3790
I1160
tp5646
s(I3038
I3040
tp5647
(I2446
I798
tp5648
s(I3032
I3068
tp5649
(I1077
I450
tp5650
s(I3034
I3040
tp5651
(I2102
I665
tp5652
s(I3045
I3047
tp5653
(I1953
I573
tp5654
s(I3048
I3007
tp5655
(I2528
I757
tp5656
s(I3005
I3010
tp5657
(I2045
I561
tp5658
s(I3069
I3054
tp5659
(I2568
I618
tp5660
s(I3075
I3077
tp5661
(I822
I234
tp5662
s(I3016
I3045
tp5663
(I3244
I752
tp5664
s(I3048
I3022
tp5665
(I984
I204
tp5666
s(I3025
I3080
tp5667
(I1805
I516
tp5668
s(I3019
I3038
tp5669
(I1635
I475
tp5670
s(I3077
I3014
tp5671
(I2867
I803
tp5672
s(I3040
I3054
tp5673
(I3739
I1020
tp5674
s(I3051
I3049
tp5675
(I1816
I624
tp5676
s(I3076
I3035
tp5677
(I1356
I481
tp5678
s(I3014
I3038
tp5679
(I1881
I562
tp5680
s(I3065
I3034
tp5681
(I3630
I994
tp5682
s(I3007
I3035
tp5683
(I996
I295
tp5684
s(I3067
I3018
tp5685
(I1603
I506
tp5686
s(I3028
I3049
tp5687
(I945
I256
tp5688
s(I3042
I3082
tp5689
(I658
I132
tp5690
s(I3006
I3038
tp5691
(I1071
I331
tp5692
s(I3025
I3066
tp5693
(I5037
I1391
tp5694
s(I3018
I3005
tp5695
(I785
I356
tp5696
s(I3018
I3075
tp5697
(I531
I298
tp5698
s(I3055
I3023
tp5699
(I1480
I401
tp5700
s(I3033
I3036
tp5701
(I2705
I671
tp5702
s(I3035
I3008
tp5703
(I258
I254
tp5704
s(I3031
I3081
tp5705
(I1832
I419
tp5706
s(I3075
I3042
tp5707
(I2302
I619
tp5708
s(I3063
I3045
tp5709
(I3027
I885
tp5710
s(I3064
I3005
tp5711
(I344
I177
tp5712
s(I3060
I3064
tp5713
(I2259
I641
tp5714
s(I3023
I3029
tp5715
(I1201
I348
tp5716
s(I3032
I3011
tp5717
(I1713
I492
tp5718
s(I3034
I3051
tp5719
(I1324
I401
tp5720
s(I3010
I3052
tp5721
(I2482
I838
tp5722
s(I3011
I3078
tp5723
(I4079
I1137
tp5724
s(I3047
I3068
tp5725
(I2472
I781
tp5726
s(I3077
I3006
tp5727
(I911
I306
tp5728
s(I3077
I3081
tp5729
(I1089
I229
tp5730
s(I3069
I3047
tp5731
(I2575
I621
tp5732
s(I3016
I3052
tp5733
(I2952
I865
tp5734
s(I3074
I3037
tp5735
(I3519
I957
tp5736
s(I3026
I3034
tp5737
(I3117
I773
tp5738
s(I3019
I3031
tp5739
(I1342
I406
tp5740
s(I3077
I3023
tp5741
(I2092
I561
tp5742
s(I3040
I3045
tp5743
(I4038
I1034
tp5744
s(I3051
I3054
tp5745
(I2068
I548
tp5746
s(I3068
I3008
tp5747
(I2446
I760
tp5748
s(I3076
I3010
tp5749
(I692
I139
tp5750
s(I3007
I3008
tp5751
(I1198
I474
tp5752
s(I3067
I3011
tp5753
(I2491
I707
tp5754
s(I3005
I3037
tp5755
(I3140
I852
tp5756
s(I3025
I3059
tp5757
(I1736
I479
tp5758
s(I3036
I3038
tp5759
(I2128
I526
tp5760
s(I3038
I3054
tp5761
(I1823
I419
tp5762
s(I3055
I3028
tp5763
(I2219
I770
tp5764
s(I3031
I3019
tp5765
(I1211
I370
tp5766
s(I3035
I3033
tp5767
(I1541
I428
tp5768
s(I3075
I3051
tp5769
(I455
I151
tp5770
s(I3063
I3042
tp5771
(I1854
I627
tp5772
s(I3023
I3026
tp5773
(I2135
I700
tp5774
s(I3037
I3055
tp5775
(I2277
I579
tp5776
s(I3032
I3018
tp5777
(I928
I275
tp5778
s(I3034
I3058
tp5779
(I3901
I1010
tp5780
s(I3010
I3047
tp5781
(I1397
I409
tp5782
s(I3045
I3049
tp5783
(I4284
I1336
tp5784
s(I3060
I3074
tp5785
(I1504
I451
tp5786
s(I3056
I3011
tp5787
(I866
I213
tp5788
s(I3058
I3035
tp5789
(I3410
I912
tp5790
s(I3081
I3049
tp5791
(I3809
I1183
tp5792
s(I3069
I3040
tp5793
(I2559
I754
tp5794
s(I3048
I3080
tp5795
(I2964
I738
tp5796
s(I3062
I3080
tp5797
(I2003
I503
tp5798
s(I3046
I3030
tp5799
(I602
I215
tp5800
s(I3068
I3057
tp5801
(I3077
I852
tp5802
s(I3026
I3029
tp5803
(I2388
I660
tp5804
s(I3019
I3020
tp5805
(I1047
I356
tp5806
s(I3079
I3028
tp5807
(I1605
I566
tp5808
s(I3033
I3005
tp5809
(I1419
I455
tp5810
s(I3074
I3005
tp5811
(I688
I237
tp5812
s(I3053
I3063
tp5813
(I1542
I452
tp5814
s(I3014
I3016
tp5815
(I796
I296
tp5816
s(I3067
I3032
tp5817
(I1460
I476
tp5818
s(I3036
I3029
tp5819
(I1911
I571
tp5820
s(I3038
I3025
tp5821
(I2912
I794
tp5822
s(I3055
I3037
tp5823
(I2277
I557
tp5824
s(I3031
I3008
tp5825
(I1320
I510
tp5826
s(I3035
I3038
tp5827
(I1566
I481
tp5828
s(I3075
I3024
tp5829
(I2672
I921
tp5830
s(I3063
I3067
tp5831
(I754
I412
tp5832
s(I3067
I3074
tp5833
(I1728
I517
tp5834
s(I3023
I3035
tp5835
(I2710
I754
tp5836
s(I3037
I3048
tp5837
(I1110
I246
tp5838
s(I3032
I3025
tp5839
(I2324
I567
tp5840
s(I3032
I3078
tp5841
(I2870
I834
tp5842
s(I3034
I3069
tp5843
(I2138
I639
tp5844
s(I3046
I3082
tp5845
(I1627
I434
tp5846
s(I3047
I3058
tp5847
(I4297
I1073
tp5848
s(I3059
I3055
tp5849
(I1080
I335
tp5850
s(I3060
I3081
tp5851
(I852
I204
tp5852
s(I3056
I3066
tp5853
(I4565
I1291
tp5854
s(I3058
I3081
tp5855
(I2270
I505
tp5856
s(I3069
I3065
tp5857
(I1922
I535
tp5858
s(I3062
I3075
tp5859
(I1817
I519
tp5860
s(I3079
I3021
tp5861
(I1027
I169
tp5862
s(I3051
I3036
tp5863
(I2442
I627
tp5864
s(I3068
I3030
tp5865
(I1004
I282
tp5866
s(I3053
I3056
tp5867
(I438
I120
tp5868
s(I3014
I3011
tp5869
(I4436
I1230
tp5870
s(I3007
I3062
tp5871
(I2412
I717
tp5872
s(I3067
I3025
tp5873
(I2846
I766
tp5874
s(I3006
I3059
tp5875
(I1562
I383
tp5876
s(I3080
I3035
tp5877
(I2296
I703
tp5878
s(I3018
I3030
tp5879
(I2207
I760
tp5880
s(I3038
I3032
tp5881
(I1449
I491
tp5882
s(I3055
I3034
tp5883
(I1503
I441
tp5884
s(I3031
I3033
tp5885
(I532
I138
tp5886
s(I3035
I3031
tp5887
(I1009
I290
tp5888
s(I3063
I3056
tp5889
(I1925
I548
tp5890
s(I3064
I3026
tp5891
(I2752
I816
tp5892
s(I3005
I3018
tp5893
(I758
I202
tp5894
s(I3027
I3021
tp5895
(I1696
I455
tp5896
s(I3062
I3051
tp5897
(I1408
I406
tp5898
s(I3047
I3051
tp5899
(I1739
I450
tp5900
s(I3023
I3077
tp5901
(I1724
I396
tp5902
s(I3059
I3060
tp5903
(I440
I103
tp5904
s(I3056
I3057
tp5905
(I852
I218
tp5906
s(I3058
I3021
tp5907
(I1828
I369
tp5908
s(I3069
I3058
tp5909
(I3316
I706
tp5910
s(I3010
I3081
tp5911
(I1168
I282
tp5912
s(I3046
I3008
tp5913
(I2080
I663
tp5914
s(I3019
I3066
tp5915
(I3929
I1082
tp5916
s(I3051
I3029
tp5917
(I973
I305
tp5918
s(I3035
I3007
tp5919
(I1254
I407
tp5920
s(I3076
I3007
tp5921
(I1679
I598
tp5922
s(I3065
I3062
tp5923
(I1916
I521
tp5924
s(I3067
I3030
tp5925
(I974
I258
tp5926
s(I3006
I3066
tp5927
(I3365
I938
tp5928
s(I3080
I3010
tp5929
(I432
I77
tp5930
s(I3018
I3025
tp5931
(I1425
I374
tp5932
s(I3038
I3011
tp5933
(I2594
I716
tp5934
s(I3057
I3005
tp5935
(I2020
I568
tp5936
s(I3031
I3030
tp5937
(I1279
I362
tp5938
s(I3075
I3038
tp5939
(I1002
I304
tp5940
s(I3064
I3033
tp5941
(I945
I277
tp5942
s(I3049
I3069
tp5943
(I1035
I287
tp5944
s(I3021
I3005
tp5945
(I2679
I805
tp5946
s(I3005
I3011
tp5947
(I1289
I310
tp5948
s(I3078
I3067
tp5949
(I2706
I754
tp5950
s(I3082
I3005
tp5951
(I2895
I866
tp5952
s(I3037
I3066
tp5953
(I3895
I895
tp5954
s(I3034
I3023
tp5955
(I2945
I838
tp5956
s(I3051
I3008
tp5957
(I1192
I466
tp5958
s(I3027
I3026
tp5959
(I2129
I619
tp5960
s(I3062
I3042
tp5961
(I986
I217
tp5962
s(I3047
I3040
tp5963
(I2400
I722
tp5964
s(I3064
I3079
tp5965
(I3056
I868
tp5966
s(I3023
I3074
tp5967
(I2738
I764
tp5968
s(I3046
I3067
tp5969
(I1186
I351
tp5970
s(I3026
I3006
tp5971
(I3034
I731
tp5972
s(I3019
I3059
tp5973
(I641
I189
tp5974
s(I3051
I3018
tp5975
(I891
I281
tp5976
s(I3007
I3042
tp5977
(I2813
I791
tp5978
s(I3049
I3074
tp5979
(I1842
I492
tp5980
s(I3067
I3055
tp5981
(I484
I142
tp5982
s(I3006
I3069
tp5983
(I1199
I336
tp5984
s(I3018
I3032
tp5985
(I898
I397
tp5986
s(I3082
I3029
tp5987
(I1229
I441
tp5988
s(I3038
I3018
tp5989
(I1593
I526
tp5990
s(I3055
I3048
tp5991
(I2069
I520
tp5992
s(I3031
I3055
tp5993
(I100
I39
tp5994
s(I3030
I3078
tp5995
(I1823
I543
tp5996
s(I3052
I3069
tp5997
(I2019
I601
tp5998
s(I3063
I3014
tp5999
(I2352
I803
tp6000
s(I3064
I3040
tp6001
(I1455
I531
tp6002
s(I3049
I3046
tp6003
(I703
I194
tp6004
s(I3060
I3035
tp6005
(I2140
I652
tp6006
s(I3005
I3036
tp6007
(I3076
I840
tp6008
s(I3078
I3058
tp6009
(I4080
I878
tp6010
s(I3019
I3077
tp6011
(I1408
I398
tp6012
s(I3034
I3030
tp6013
(I2645
I760
tp6014
s(I3010
I3019
tp6015
(I750
I307
tp6016
s(I3027
I3035
tp6017
(I1908
I525
tp6018
s(I3062
I3045
tp6019
(I2788
I703
tp6020
s(I3059
I3010
tp6021
(I164
I174
tp6022
s(I3021
I3079
tp6023
(I1027
I184
tp6024
s(I3056
I3055
tp6025
(I1988
I563
tp6026
s(I3074
I3054
tp6027
(I2995
I822
tp6028
s(I3075
I3082
tp6029
(I2562
I710
tp6030
s(I3046
I3058
tp6031
(I3238
I702
tp6032
s(I3008
I3055
tp6033
(I1367
I397
tp6034
s(I3051
I3011
tp6035
(I1923
I513
tp6036
s(I3075
I3007
tp6037
(I1285
I435
tp6038
s(I3021
I3038
tp6039
(I1320
I392
tp6040
s(I3018
I3011
tp6041
(I1106
I294
tp6042
s(I3082
I3036
tp6043
(I1276
I213
tp6044
s(I3038
I3021
tp6045
(I1584
I408
tp6046
s(I3055
I3057
tp6047
(I2731
I703
tp6048
s(I3052
I3060
tp6049
(I2774
I710
tp6050
s(I3075
I3020
tp6051
(I1689
I431
tp6052
s(I3064
I3047
tp6053
(I1341
I284
tp6054
s(I3049
I3055
tp6055
(I2021
I537
tp6056
s(I3066
I3031
tp6057
(I2667
I696
tp6058
s(I3042
I3016
tp6059
(I594
I141
tp6060
s(I3005
I3029
tp6061
(I1608
I518
tp6062
s(I3081
I3005
tp6063
(I2628
I763
tp6064
s(I3034
I3025
tp6065
(I1246
I304
tp6066
s(I3027
I3040
tp6067
(I2664
I795
tp6068
s(I3062
I3068
tp6069
(I1701
I619
tp6070
s(I3029
I3020
tp6071
(I3242
I880
tp6072
s(I3059
I3019
tp6073
(I587
I253
tp6074
s(I3056
I3046
tp6075
(I2649
I758
tp6076
s(I3058
I3062
tp6077
(I2089
I525
tp6078
s(I3074
I3049
tp6079
(I1869
I658
tp6080
s(I3047
I3075
tp6081
(I1385
I358
tp6082
s(I3005
I3082
tp6083
(I2881
I852
tp6084
s(I3029
I3005
tp6085
(I1807
I540
tp6086
s(I3022
I3014
tp6087
(I1779
I394
tp6088
s(I3030
I3028
tp6089
(I1040
I447
tp6090
s(I3057
I3031
tp6091
(I2565
I703
tp6092
s(I3033
I3042
tp6093
(I2250
I592
tp6094
s(I3076
I3074
tp6095
(I1524
I447
tp6096
s(I3067
I3069
tp6097
(I906
I299
tp6098
s(I3063
I3076
tp6099
(I1378
I532
tp6100
s(I3021
I3031
tp6101
(I1916
I558
tp6102
s(I3006
I3055
tp6103
(I613
I179
tp6104
s(I3024
I3082
tp6105
(I1983
I512
tp6106
s(I3080
I3063
tp6107
(I2372
I723
tp6108
s(I3066
I3080
tp6109
(I4120
I1023
tp6110
s(I3020
I3034
tp6111
(I1613
I481
tp6112
s(I3031
I3069
tp6113
(I892
I239
tp6114
s(I3052
I3059
tp6115
(I2382
I648
tp6116
s(I3049
I3024
tp6117
(I643
I280
tp6118
s(I3066
I3038
tp6119
(I2789
I765
tp6120
s(I3005
I3074
tp6121
(I630
I140
tp6122
s(I3005
I3054
tp6123
(I2703
I761
tp6124
s(I3040
I3075
tp6125
(I2126
I598
tp6126
s(I3035
I3005
tp6127
(I300
I82
tp6128
s(I3030
I3038
tp6129
(I1070
I267
tp6130
s(I3034
I3032
tp6131
(I1111
I361
tp6132
s(I3027
I3049
tp6133
(I1177
I392
tp6134
s(I3062
I3063
tp6135
(I1266
I429
tp6136
s(I3048
I3063
tp6137
(I2361
I710
tp6138
s(I3074
I3040
tp6139
(I1798
I592
tp6140
s(I3047
I3082
tp6141
(I3879
I1058
tp6142
s(I3011
I3056
tp6143
(I634
I169
tp6144
s(I3046
I3052
tp6145
(I2093
I604
tp6146
s(I3008
I3069
tp6147
(I1953
I554
tp6148
s(I3019
I3046
tp6149
(I2031
I622
tp6150
s(I3057
I3016
tp6151
(I3988
I1109
tp6152
s(I3033
I3051
tp6153
(I784
I252
tp6154
s(I3076
I3081
tp6155
(I1243
I252
tp6156
s(I3074
I3081
tp6157
(I2158
I558
tp6158
s(I3067
I3058
tp6159
(I2230
I509
tp6160
s(I3021
I3024
tp6161
(I1998
I745
tp6162
s(I3046
I3040
tp6163
(I2633
I754
tp6164
s(I3082
I3022
tp6165
(I437
I78
tp6166
s(I3038
I3007
tp6167
(I725
I312
tp6168
s(I3031
I3066
tp6169
(I2851
I798
tp6170
s(I3045
I3031
tp6171
(I2612
I707
tp6172
s(I3049
I3033
tp6173
(I2454
I639
tp6174
s(I3042
I3034
tp6175
(I3274
I899
tp6176
s(I3005
I3047
tp6177
(I1382
I310
tp6178
s(I3078
I3047
tp6179
(I4596
I1174
tp6180
s(I3037
I3038
tp6181
(I2598
I654
tp6182
s(I3016
I3029
tp6183
(I1166
I307
tp6184
s(I3062
I3022
tp6185
(I1629
I373
tp6186
s(I3029
I3038
tp6187
(I287
I279
tp6188
s(I3024
I3067
tp6189
(I1927
I517
tp6190
s(I3059
I3033
tp6191
(I523
I166
tp6192
s(I3054
I3022
tp6193
(I1435
I284
tp6194
s(I3077
I3062
tp6195
(I1174
I402
tp6196
s(I3058
I3048
tp6197
(I1159
I251
tp6198
s(I3074
I3067
tp6199
(I1359
I419
tp6200
s(I3031
I3028
tp6201
(I2319
I809
tp6202
s(I3011
I3065
tp6203
(I4350
I1181
tp6204
s(I3046
I3047
tp6205
(I2649
I623
tp6206
s(I3022
I3024
tp6207
(I2405
I820
tp6208
s(I3008
I3060
tp6209
(I1941
I537
tp6210
s(I3033
I3052
tp6211
(I1989
I659
tp6212
s(I3080
I3081
tp6213
(I664
I143
tp6214
s(I3023
I3045
tp6215
(I2929
I677
tp6216
s(I3080
I3045
tp6217
(I775
I199
tp6218
s(I3018
I3068
tp6219
(I1619
I719
tp6220
s.